---
triple:          'x86_64-apple-darwin'
binary-path:     '/Users/shivgovil/Documents/Projects/drones/app'
relocations:
  - { offsetInCU: 0x6800, offset: 0x6800, size: 0x8, addend: 0x0, symName: __ZNSt3__17advanceB7v160006IPmmmvEEvRT_T0_, symObjAddr: 0x5F80, symBinAddr: 0x1000086A0, symSize: 0x50 }
  - { offsetInCU: 0x69AD, offset: 0x69AD, size: 0x8, addend: 0x0, symName: __ZNSt3__124__put_character_sequenceB7v160006IcNS_11char_traitsIcEEEERNS_13basic_ostreamIT_T0_EES7_PKS4_m, symObjAddr: 0x6D00, symBinAddr: 0x100009420, symSize: 0x1F0 }
  - { offsetInCU: 0xC214, offset: 0xC214, size: 0x8, addend: 0x0, symName: __ZNSt3__1lsB7v160006INS_11char_traitsIcEEEERNS_13basic_ostreamIcT_EES6_PKc, symObjAddr: 0x1000, symBinAddr: 0x100003720, symSize: 0x40 }
  - { offsetInCU: 0xC64A, offset: 0xC64A, size: 0x8, addend: 0x0, symName: __ZNSt3__1neB7v160006IP8DropZoneEEbRKNS_11__wrap_iterIT_EES7_, symObjAddr: 0x1210, symBinAddr: 0x100003930, symSize: 0x30 }
  - { offsetInCU: 0xC68D, offset: 0xC68D, size: 0x8, addend: 0x0, symName: __ZNSt3__1neB7v160006IP11DroneFlightEEbRKNS_11__wrap_iterIT_EES7_, symObjAddr: 0x1340, symBinAddr: 0x100003A60, symSize: 0x30 }
  - { offsetInCU: 0xC6D0, offset: 0xC6D0, size: 0x8, addend: 0x0, symName: __ZNSt3__119__debug_db_insert_cB7v160006INS_6vectorI8DropZoneNS_9allocatorIS2_EEEEEEvPT_, symObjAddr: 0x1BE0, symBinAddr: 0x100004300, symSize: 0x10 }
  - { offsetInCU: 0xC701, offset: 0xC701, size: 0x8, addend: 0x0, symName: __ZNSt3__119__debug_db_insert_cB7v160006INS_6vectorImNS_9allocatorImEEEEEEvPT_, symObjAddr: 0x1D30, symBinAddr: 0x100004450, symSize: 0x10 }
  - { offsetInCU: 0xC732, offset: 0xC732, size: 0x8, addend: 0x0, symName: __ZNSt3__115__debug_db_swapB7v160006INS_6vectorI8DropZoneNS_9allocatorIS2_EEEEEEvPT_S7_, symObjAddr: 0x1FD0, symBinAddr: 0x1000046F0, symSize: 0x10 }
  - { offsetInCU: 0xC771, offset: 0xC771, size: 0x8, addend: 0x0, symName: __ZNSt3__125__debug_db_invalidate_allB7v160006INS_6vectorI8DropZoneNS_9allocatorIS2_EEEEEEvPT_, symObjAddr: 0x21B0, symBinAddr: 0x1000048D0, symSize: 0x10 }
  - { offsetInCU: 0xC7A2, offset: 0xC7A2, size: 0x8, addend: 0x0, symName: __ZNSt3__112__to_addressB7v160006I8DropZoneEEPT_S3_, symObjAddr: 0x2270, symBinAddr: 0x100004990, symSize: 0x10 }
  - { offsetInCU: 0xC7D7, offset: 0xC7D7, size: 0x8, addend: 0x0, symName: __ZNSt3__119__libcpp_deallocateB7v160006EPvmm, symObjAddr: 0x2320, symBinAddr: 0x100004A40, symSize: 0x60 }
  - { offsetInCU: 0xC83C, offset: 0xC83C, size: 0x8, addend: 0x0, symName: __ZNSt3__124__is_overaligned_for_newB7v160006Em, symObjAddr: 0x2380, symBinAddr: 0x100004AA0, symSize: 0x20 }
  - { offsetInCU: 0xC86A, offset: 0xC86A, size: 0x8, addend: 0x0, symName: __ZNSt3__127__do_deallocate_handle_sizeB7v160006IJSt11align_val_tEEEvPvmDpT_, symObjAddr: 0x23A0, symBinAddr: 0x100004AC0, symSize: 0x30 }
  - { offsetInCU: 0xC8BD, offset: 0xC8BD, size: 0x8, addend: 0x0, symName: __ZNSt3__127__do_deallocate_handle_sizeB7v160006IJEEEvPvmDpT_, symObjAddr: 0x23D0, symBinAddr: 0x100004AF0, symSize: 0x20 }
  - { offsetInCU: 0xC8FB, offset: 0xC8FB, size: 0x8, addend: 0x0, symName: __ZNSt3__124__libcpp_operator_deleteB7v160006IJPvSt11align_val_tEEEvDpT_, symObjAddr: 0x23F0, symBinAddr: 0x100004B10, symSize: 0x30 }
  - { offsetInCU: 0xC944, offset: 0xC944, size: 0x8, addend: 0x0, symName: __ZNSt3__124__libcpp_operator_deleteB7v160006IJPvEEEvDpT_, symObjAddr: 0x2420, symBinAddr: 0x100004B40, symSize: 0x20 }
  - { offsetInCU: 0xC979, offset: 0xC979, size: 0x8, addend: 0x0, symName: __ZNSt3__115__debug_db_swapB7v160006INS_6vectorImNS_9allocatorImEEEEEEvPT_S6_, symObjAddr: 0x26A0, symBinAddr: 0x100004DC0, symSize: 0x10 }
  - { offsetInCU: 0xC9B8, offset: 0xC9B8, size: 0x8, addend: 0x0, symName: __ZNSt3__125__debug_db_invalidate_allB7v160006INS_6vectorImNS_9allocatorImEEEEEEvPT_, symObjAddr: 0x2860, symBinAddr: 0x100004F80, symSize: 0x10 }
  - { offsetInCU: 0xC9E9, offset: 0xC9E9, size: 0x8, addend: 0x0, symName: __ZNSt3__112__to_addressB7v160006ImEEPT_S2_, symObjAddr: 0x2920, symBinAddr: 0x100005040, symSize: 0x10 }
  - { offsetInCU: 0xCA1E, offset: 0xCA1E, size: 0x8, addend: 0x0, symName: __ZNSt3__118__debug_db_erase_cB7v160006INS_6vectorImNS_9allocatorImEEEEEEvPT_, symObjAddr: 0x2CD0, symBinAddr: 0x1000053F0, symSize: 0x10 }
  - { offsetInCU: 0xCA4F, offset: 0xCA4F, size: 0x8, addend: 0x0, symName: __ZNSt3__1eqB7v160006IP8DropZoneEEbRKNS_11__wrap_iterIT_EES7_, symObjAddr: 0x2CF0, symBinAddr: 0x100005410, symSize: 0x40 }
  - { offsetInCU: 0xCA92, offset: 0xCA92, size: 0x8, addend: 0x0, symName: __ZNSt3__1eqB7v160006IP11DroneFlightEEbRKNS_11__wrap_iterIT_EES7_, symObjAddr: 0x2D50, symBinAddr: 0x100005470, symSize: 0x40 }
  - { offsetInCU: 0xCAF1, offset: 0xCAF1, size: 0x8, addend: 0x0, symName: __ZNSt3__17reverseB7v160006INS_11__wrap_iterIPmEEEEvT_S4_, symObjAddr: 0x3150, symBinAddr: 0x100005870, symSize: 0x40 }
  - { offsetInCU: 0xCB30, offset: 0xCB30, size: 0x8, addend: 0x0, symName: __ZNSt3__13maxB7v160006ImEERKT_S3_S3_, symObjAddr: 0x3730, symBinAddr: 0x100005E50, symSize: 0x30 }
  - { offsetInCU: 0xCB73, offset: 0xCB73, size: 0x8, addend: 0x0, symName: __ZNSt3__13minB7v160006ImEERKT_S3_S3_, symObjAddr: 0x3760, symBinAddr: 0x100005E80, symSize: 0x30 }
  - { offsetInCU: 0xCDA0, offset: 0xCDA0, size: 0x8, addend: 0x0, symName: __ZNSt3__13minB7v160006ImNS_6__lessImmEEEERKT_S5_S5_T0_, symObjAddr: 0x37E0, symBinAddr: 0x100005F00, symSize: 0x50 }
  - { offsetInCU: 0xCE35, offset: 0xCE35, size: 0x8, addend: 0x0, symName: __ZNSt3__120__throw_length_errorB7v160006EPKc, symObjAddr: 0x38C0, symBinAddr: 0x100005FE0, symSize: 0x70 }
  - { offsetInCU: 0xCE5D, offset: 0xCE5D, size: 0x8, addend: 0x0, symName: __ZNSt3__13maxB7v160006ImNS_6__lessImmEEEERKT_S5_S5_T0_, symObjAddr: 0x39A0, symBinAddr: 0x1000060C0, symSize: 0x50 }
  - { offsetInCU: 0xCEB7, offset: 0xCEB7, size: 0x8, addend: 0x0, symName: __ZNSt3__119__allocate_at_leastB7v160006INS_9allocatorImEEEENS_19__allocation_resultINS_16allocator_traitsIT_E7pointerEEERS5_m, symObjAddr: 0x3AF0, symBinAddr: 0x100006210, symSize: 0x40 }
  - { offsetInCU: 0xCEFA, offset: 0xCEFA, size: 0x8, addend: 0x0, symName: __ZNSt3__117__libcpp_allocateB7v160006Emm, symObjAddr: 0x3C60, symBinAddr: 0x100006380, symSize: 0x60 }
  - { offsetInCU: 0xCF54, offset: 0xCF54, size: 0x8, addend: 0x0, symName: __ZNSt3__121__libcpp_operator_newB7v160006IJmSt11align_val_tEEEPvDpT_, symObjAddr: 0x3CC0, symBinAddr: 0x1000063E0, symSize: 0x30 }
  - { offsetInCU: 0xCFA1, offset: 0xCFA1, size: 0x8, addend: 0x0, symName: __ZNSt3__121__libcpp_operator_newB7v160006IJmEEEPvDpT_, symObjAddr: 0x3CF0, symBinAddr: 0x100006410, symSize: 0x20 }
  - { offsetInCU: 0xCFDA, offset: 0xCFDA, size: 0x8, addend: 0x0, symName: __ZNSt3__142__uninitialized_allocator_move_if_noexceptB7v160006INS_9allocatorImEENS_16reverse_iteratorIPmEES5_mvEET1_RT_T0_S9_S6_, symObjAddr: 0x3D70, symBinAddr: 0x100006490, symSize: 0x70 }
  - { offsetInCU: 0xD056, offset: 0xD056, size: 0x8, addend: 0x0, symName: __ZNSt3__14swapB7v160006IPmEENS_9enable_ifIXaasr21is_move_constructibleIT_EE5valuesr18is_move_assignableIS3_EE5valueEvE4typeERS3_S6_, symObjAddr: 0x3E30, symBinAddr: 0x100006550, symSize: 0x40 }
  - { offsetInCU: 0xD0A7, offset: 0xD0A7, size: 0x8, addend: 0x0, symName: __ZNSt3__14moveB7v160006INS_16reverse_iteratorIPmEES3_EET0_T_S5_S4_, symObjAddr: 0x3F20, symBinAddr: 0x100006640, symSize: 0x80 }
  - { offsetInCU: 0xD101, offset: 0xD101, size: 0x8, addend: 0x0, symName: __ZNSt3__16__moveB7v160006INS_17_ClassicAlgPolicyENS_16reverse_iteratorIPmEES4_S4_EENS_4pairIT0_T2_EES6_T1_S7_, symObjAddr: 0x3FA0, symBinAddr: 0x1000066C0, symSize: 0x90 }
  - { offsetInCU: 0xD16D, offset: 0xD16D, size: 0x8, addend: 0x0, symName: __ZNSt3__123__dispatch_copy_or_moveB7v160006INS_17_ClassicAlgPolicyENS_11__move_loopIS1_EENS_14__move_trivialENS_16reverse_iteratorIPmEES7_S7_EENS_4pairIT2_T4_EES9_T3_SA_, symObjAddr: 0x4030, symBinAddr: 0x100006750, symSize: 0x90 }
  - { offsetInCU: 0xD1EB, offset: 0xD1EB, size: 0x8, addend: 0x0, symName: __ZNSt3__121__unwrap_and_dispatchB7v160006INS_10__overloadINS_11__move_loopINS_17_ClassicAlgPolicyEEENS_14__move_trivialEEENS_16reverse_iteratorIPmEES9_S9_Li0EEENS_4pairIT0_T2_EESB_T1_SC_, symObjAddr: 0x40C0, symBinAddr: 0x1000067E0, symSize: 0x210 }
  - { offsetInCU: 0xD27A, offset: 0xD27A, size: 0x8, addend: 0x0, symName: __ZNSt3__114__unwrap_rangeB7v160006INS_16reverse_iteratorIPmEES3_EENS_4pairIT0_S5_EET_S7_, symObjAddr: 0x42D0, symBinAddr: 0x1000069F0, symSize: 0x90 }
  - { offsetInCU: 0xD434, offset: 0xD434, size: 0x8, addend: 0x0, symName: __ZNSt3__113__unwrap_iterB7v160006INS_16reverse_iteratorIPmEENS_18__unwrap_iter_implIS3_Lb0EEELi0EEEDTclsrT0_8__unwrapclsr3stdE7declvalIT_EEEES7_, symObjAddr: 0x4400, symBinAddr: 0x100006B20, symSize: 0x40 }
  - { offsetInCU: 0xD478, offset: 0xD478, size: 0x8, addend: 0x0, symName: __ZNSt3__19make_pairB7v160006INS_16reverse_iteratorIPmEES3_EENS_4pairINS_18__unwrap_ref_decayIT_E4typeENS5_IT0_E4typeEEEOS6_OS9_, symObjAddr: 0x4440, symBinAddr: 0x100006B60, symSize: 0x30 }
  - { offsetInCU: 0xD4C7, offset: 0xD4C7, size: 0x8, addend: 0x0, symName: __ZNSt3__114__rewrap_rangeB7v160006INS_16reverse_iteratorIPmEES3_EET_S4_T0_, symObjAddr: 0x4470, symBinAddr: 0x100006B90, symSize: 0x60 }
  - { offsetInCU: 0xD513, offset: 0xD513, size: 0x8, addend: 0x0, symName: __ZNSt3__113__rewrap_iterB7v160006INS_16reverse_iteratorIPmEES3_NS_18__unwrap_iter_implIS3_Lb0EEEEET_S6_T0_, symObjAddr: 0x44D0, symBinAddr: 0x100006BF0, symSize: 0x70 }
  - { offsetInCU: 0xD568, offset: 0xD568, size: 0x8, addend: 0x0, symName: __ZNSt3__1neB7v160006IPmS1_EEbRKNS_16reverse_iteratorIT_EERKNS2_IT0_EE, symObjAddr: 0x4540, symBinAddr: 0x100006C60, symSize: 0x40 }
  - { offsetInCU: 0xD6C1, offset: 0xD6C1, size: 0x8, addend: 0x0, symName: __ZNSt3__1miB7v160006IPKmPmEEDTmicldtfp_4baseEcldtfp0_4baseEERKNS_11__wrap_iterIT_EERKNS5_IT0_EE, symObjAddr: 0x48A0, symBinAddr: 0x100006FC0, symSize: 0x40 }
  - { offsetInCU: 0xD740, offset: 0xD740, size: 0x8, addend: 0x0, symName: __ZNSt3__113move_backwardB7v160006IPmS1_EET0_T_S3_S2_, symObjAddr: 0x4F70, symBinAddr: 0x100007690, symSize: 0x40 }
  - { offsetInCU: 0xD79A, offset: 0xD79A, size: 0x8, addend: 0x0, symName: __ZNSt3__115__move_backwardB7v160006INS_17_ClassicAlgPolicyEPmS2_S2_EENS_4pairIT0_T2_EES4_T1_S5_, symObjAddr: 0x4FB0, symBinAddr: 0x1000076D0, symSize: 0x40 }
  - { offsetInCU: 0xD806, offset: 0xD806, size: 0x8, addend: 0x0, symName: __ZNSt3__123__dispatch_copy_or_moveB7v160006INS_17_ClassicAlgPolicyENS_20__move_backward_loopIS1_EENS_23__move_backward_trivialEPmS5_S5_EENS_4pairIT2_T4_EES7_T3_S8_, symObjAddr: 0x4FF0, symBinAddr: 0x100007710, symSize: 0x40 }
  - { offsetInCU: 0xD884, offset: 0xD884, size: 0x8, addend: 0x0, symName: __ZNSt3__121__unwrap_and_dispatchB7v160006INS_10__overloadINS_20__move_backward_loopINS_17_ClassicAlgPolicyEEENS_23__move_backward_trivialEEEPmS7_S7_Li0EEENS_4pairIT0_T2_EES9_T1_SA_, symObjAddr: 0x5030, symBinAddr: 0x100007750, symSize: 0xB0 }
  - { offsetInCU: 0xD913, offset: 0xD913, size: 0x8, addend: 0x0, symName: __ZNSt3__114__unwrap_rangeB7v160006IPmS1_EENS_4pairIT0_S3_EET_S5_, symObjAddr: 0x50E0, symBinAddr: 0x100007800, symSize: 0x50 }
  - { offsetInCU: 0xDAD7, offset: 0xDAD7, size: 0x8, addend: 0x0, symName: __ZNSt3__113__unwrap_iterB7v160006IPmNS_18__unwrap_iter_implIS1_Lb1EEELi0EEEDTclsrT0_8__unwrapclsr3stdE7declvalIT_EEEES5_, symObjAddr: 0x5170, symBinAddr: 0x100007890, symSize: 0x20 }
  - { offsetInCU: 0xDB1B, offset: 0xDB1B, size: 0x8, addend: 0x0, symName: __ZNSt3__19make_pairB7v160006IPmS1_EENS_4pairINS_18__unwrap_ref_decayIT_E4typeENS3_IT0_E4typeEEEOS4_OS7_, symObjAddr: 0x5190, symBinAddr: 0x1000078B0, symSize: 0x30 }
  - { offsetInCU: 0xDB6A, offset: 0xDB6A, size: 0x8, addend: 0x0, symName: __ZNSt3__114__rewrap_rangeB7v160006IPmS1_EET_S2_T0_, symObjAddr: 0x51C0, symBinAddr: 0x1000078E0, symSize: 0x30 }
  - { offsetInCU: 0xDBB6, offset: 0xDBB6, size: 0x8, addend: 0x0, symName: __ZNSt3__113__rewrap_iterB7v160006IPmS1_NS_18__unwrap_iter_implIS1_Lb1EEEEET_S4_T0_, symObjAddr: 0x51F0, symBinAddr: 0x100007910, symSize: 0x40 }
  - { offsetInCU: 0xDC0B, offset: 0xDC0B, size: 0x8, addend: 0x0, symName: __ZNSt3__128__copy_backward_trivial_implB7v160006ImmEENS_4pairIPT_PT0_EES3_S3_S5_, symObjAddr: 0x5230, symBinAddr: 0x100007950, symSize: 0x80 }
  - { offsetInCU: 0xDC73, offset: 0xDC73, size: 0x8, addend: 0x0, symName: __ZNSt3__19make_pairB7v160006IRPmS2_EENS_4pairINS_18__unwrap_ref_decayIT_E4typeENS4_IT0_E4typeEEEOS5_OS8_, symObjAddr: 0x52B0, symBinAddr: 0x1000079D0, symSize: 0x30 }
  - { offsetInCU: 0xDD15, offset: 0xDD15, size: 0x8, addend: 0x0, symName: __ZNSt3__14moveB7v160006IPmS1_EET0_T_S3_S2_, symObjAddr: 0x5410, symBinAddr: 0x100007B30, symSize: 0x40 }
  - { offsetInCU: 0xDD6F, offset: 0xDD6F, size: 0x8, addend: 0x0, symName: __ZNSt3__16__moveB7v160006INS_17_ClassicAlgPolicyEPmS2_S2_EENS_4pairIT0_T2_EES4_T1_S5_, symObjAddr: 0x5580, symBinAddr: 0x100007CA0, symSize: 0x40 }
  - { offsetInCU: 0xDDDB, offset: 0xDDDB, size: 0x8, addend: 0x0, symName: __ZNSt3__123__dispatch_copy_or_moveB7v160006INS_17_ClassicAlgPolicyENS_11__move_loopIS1_EENS_14__move_trivialEPmS5_S5_EENS_4pairIT2_T4_EES7_T3_S8_, symObjAddr: 0x55C0, symBinAddr: 0x100007CE0, symSize: 0x40 }
  - { offsetInCU: 0xDE59, offset: 0xDE59, size: 0x8, addend: 0x0, symName: __ZNSt3__121__unwrap_and_dispatchB7v160006INS_10__overloadINS_11__move_loopINS_17_ClassicAlgPolicyEEENS_14__move_trivialEEEPmS7_S7_Li0EEENS_4pairIT0_T2_EES9_T1_SA_, symObjAddr: 0x5600, symBinAddr: 0x100007D20, symSize: 0xB0 }
  - { offsetInCU: 0xDF2E, offset: 0xDF2E, size: 0x8, addend: 0x0, symName: __ZNSt3__119__copy_trivial_implB7v160006ImmEENS_4pairIPT_PT0_EES3_S3_S5_, symObjAddr: 0x56F0, symBinAddr: 0x100007E10, symSize: 0x70 }
  - { offsetInCU: 0xDF96, offset: 0xDF96, size: 0x8, addend: 0x0, symName: __ZNSt3__19make_pairB7v160006IRPmS1_EENS_4pairINS_18__unwrap_ref_decayIT_E4typeENS4_IT0_E4typeEEEOS5_OS8_, symObjAddr: 0x5760, symBinAddr: 0x100007E80, symSize: 0x30 }
  - { offsetInCU: 0xDFE5, offset: 0xDFE5, size: 0x8, addend: 0x0, symName: __ZNSt3__18distanceB7v160006INS_13move_iteratorIPmEEEENS_15iterator_traitsIT_E15difference_typeES5_S5_, symObjAddr: 0x57F0, symBinAddr: 0x100007F10, symSize: 0x40 }
  - { offsetInCU: 0xE028, offset: 0xE028, size: 0x8, addend: 0x0, symName: __ZNSt3__110__distanceB7v160006INS_13move_iteratorIPmEEEENS_15iterator_traitsIT_E15difference_typeES5_S5_NS_26random_access_iterator_tagE, symObjAddr: 0x58C0, symBinAddr: 0x100007FE0, symSize: 0x30 }
  - { offsetInCU: 0xE075, offset: 0xE075, size: 0x8, addend: 0x0, symName: __ZNSt3__1miB7v160006IPmS1_EEDTmicldtfp_4baseEcldtfp0_4baseEERKNS_13move_iteratorIT_EERKNS3_IT0_EE, symObjAddr: 0x58F0, symBinAddr: 0x100008010, symSize: 0x40 }
  - { offsetInCU: 0xE0C4, offset: 0xE0C4, size: 0x8, addend: 0x0, symName: __ZNSt3__142__uninitialized_allocator_move_if_noexceptB7v160006INS_9allocatorImEEPmS3_mvEET1_RT_T0_S7_S4_, symObjAddr: 0x59D0, symBinAddr: 0x1000080F0, symSize: 0x30 }
  - { offsetInCU: 0xE140, offset: 0xE140, size: 0x8, addend: 0x0, symName: __ZNSt3__19__reverseB7v160006INS_17_ClassicAlgPolicyENS_11__wrap_iterIPmEES4_EEvT0_T1_, symObjAddr: 0x5B20, symBinAddr: 0x100008240, symSize: 0x40 }
  - { offsetInCU: 0xE191, offset: 0xE191, size: 0x8, addend: 0x0, symName: __ZNSt3__114__reverse_implB7v160006INS_17_ClassicAlgPolicyENS_11__wrap_iterIPmEEEEvT0_S5_NS_26random_access_iterator_tagE, symObjAddr: 0x5B60, symBinAddr: 0x100008280, symSize: 0x80 }
  - { offsetInCU: 0xE1E3, offset: 0xE1E3, size: 0x8, addend: 0x0, symName: __ZNSt3__1neB7v160006IPmEEbRKNS_11__wrap_iterIT_EES6_, symObjAddr: 0x5BE0, symBinAddr: 0x100008300, symSize: 0x30 }
  - { offsetInCU: 0xE226, offset: 0xE226, size: 0x8, addend: 0x0, symName: __ZNSt3__1ltB7v160006IPmEEbRKNS_11__wrap_iterIT_EES6_, symObjAddr: 0x5C10, symBinAddr: 0x100008330, symSize: 0x40 }
  - { offsetInCU: 0xE269, offset: 0xE269, size: 0x8, addend: 0x0, symName: __ZNSt3__1eqB7v160006IPmEEbRKNS_11__wrap_iterIT_EES6_, symObjAddr: 0x5CD0, symBinAddr: 0x1000083F0, symSize: 0x40 }
  - { offsetInCU: 0xE2AC, offset: 0xE2AC, size: 0x8, addend: 0x0, symName: __ZNSt3__19iter_swapB7v160006INS_11__wrap_iterIPmEES3_EEvT_T0_, symObjAddr: 0x5D10, symBinAddr: 0x100008430, symSize: 0x40 }
  - { offsetInCU: 0xE2F4, offset: 0xE2F4, size: 0x8, addend: 0x0, symName: __ZNSt3__14swapB7v160006ImEENS_9enable_ifIXaasr21is_move_constructibleIT_EE5valuesr18is_move_assignableIS2_EE5valueEvE4typeERS2_S5_, symObjAddr: 0x5D50, symBinAddr: 0x100008470, symSize: 0x40 }
  - { offsetInCU: 0xE345, offset: 0xE345, size: 0x8, addend: 0x0, symName: __ZNSt3__18distanceB7v160006IPmEENS_15iterator_traitsIT_E15difference_typeES3_S3_, symObjAddr: 0x5F50, symBinAddr: 0x100008670, symSize: 0x30 }
  - { offsetInCU: 0xE388, offset: 0xE388, size: 0x8, addend: 0x0, symName: __ZNSt3__14copyB7v160006IPmS1_EET0_T_S3_S2_, symObjAddr: 0x5FD0, symBinAddr: 0x1000086F0, symSize: 0x40 }
  - { offsetInCU: 0xE3E2, offset: 0xE3E2, size: 0x8, addend: 0x0, symName: __ZNSt3__110__distanceB7v160006IPmEENS_15iterator_traitsIT_E15difference_typeES3_S3_NS_26random_access_iterator_tagE, symObjAddr: 0x6140, symBinAddr: 0x100008860, symSize: 0x20 }
  - { offsetInCU: 0xE42F, offset: 0xE42F, size: 0x8, addend: 0x0, symName: __ZNSt3__121__convert_to_integralB7v160006Em, symObjAddr: 0x6160, symBinAddr: 0x100008880, symSize: 0x10 }
  - { offsetInCU: 0xE45B, offset: 0xE45B, size: 0x8, addend: 0x0, symName: __ZNSt3__19__advanceB7v160006IPmEEvRT_NS_15iterator_traitsIS2_E15difference_typeENS_26random_access_iterator_tagE, symObjAddr: 0x6170, symBinAddr: 0x100008890, symSize: 0x20 }
  - { offsetInCU: 0xE4A4, offset: 0xE4A4, size: 0x8, addend: 0x0, symName: __ZNSt3__16__copyB7v160006INS_17_ClassicAlgPolicyEPmS2_S2_EENS_4pairIT0_T2_EES4_T1_S5_, symObjAddr: 0x6190, symBinAddr: 0x1000088B0, symSize: 0x40 }
  - { offsetInCU: 0xE510, offset: 0xE510, size: 0x8, addend: 0x0, symName: __ZNSt3__123__dispatch_copy_or_moveB7v160006INS_17_ClassicAlgPolicyENS_11__copy_loopIS1_EENS_14__copy_trivialEPmS5_S5_EENS_4pairIT2_T4_EES7_T3_S8_, symObjAddr: 0x61D0, symBinAddr: 0x1000088F0, symSize: 0x40 }
  - { offsetInCU: 0xE58E, offset: 0xE58E, size: 0x8, addend: 0x0, symName: __ZNSt3__121__unwrap_and_dispatchB7v160006INS_10__overloadINS_11__copy_loopINS_17_ClassicAlgPolicyEEENS_14__copy_trivialEEEPmS7_S7_Li0EEENS_4pairIT0_T2_EES9_T1_SA_, symObjAddr: 0x6210, symBinAddr: 0x100008930, symSize: 0xB0 }
  - { offsetInCU: 0xE69F, offset: 0xE69F, size: 0x8, addend: 0x0, symName: __ZNSt3__130__uninitialized_allocator_copyB7v160006INS_9allocatorImEEPmS3_S3_EET2_RT_T0_T1_S4_, symObjAddr: 0x6300, symBinAddr: 0x100008A20, symSize: 0x100 }
  - { offsetInCU: 0xE73D, offset: 0xE73D, size: 0x8, addend: 0x0, symName: __ZNSt3__122__make_exception_guardB7v160006INS_29_AllocatorDestroyRangeReverseINS_9allocatorImEEPmEEEENS_28__exception_guard_exceptionsIT_EES7_, symObjAddr: 0x6400, symBinAddr: 0x100008B20, symSize: 0x60 }
  - { offsetInCU: 0xE772, offset: 0xE772, size: 0x8, addend: 0x0, symName: __ZNSt3__119__allocator_destroyB7v160006INS_9allocatorImEENS_16reverse_iteratorIPmEES5_EEvRT_T0_T1_, symObjAddr: 0x6680, symBinAddr: 0x100008DA0, symSize: 0x70 }
  - { offsetInCU: 0xE7D5, offset: 0xE7D5, size: 0x8, addend: 0x0, symName: __ZNSt3__112__to_addressB7v160006INS_16reverse_iteratorIPmEEvEENS_5decayIDTclsr19__to_address_helperIT_EE6__callclsr3stdE7declvalIRKS5_EEEEE4typeES7_, symObjAddr: 0x66F0, symBinAddr: 0x100008E10, symSize: 0x20 }
  - { offsetInCU: 0xE834, offset: 0xE834, size: 0x8, addend: 0x0, symName: __ZNSt3__116__pad_and_outputB7v160006IcNS_11char_traitsIcEEEENS_19ostreambuf_iteratorIT_T0_EES6_PKS4_S8_S8_RNS_8ios_baseES4_, symObjAddr: 0x6F40, symBinAddr: 0x100009660, symSize: 0x220 }
  - { offsetInCU: 0xE904, offset: 0xE904, size: 0x8, addend: 0x0, symName: __ZNSt3__119__debug_db_insert_cB7v160006INS_12basic_stringIcNS_11char_traitsIcEENS_9allocatorIcEEEEEEvPT_, symObjAddr: 0x73D0, symBinAddr: 0x100009AF0, symSize: 0x10 }
  - { offsetInCU: 0xE935, offset: 0xE935, size: 0x8, addend: 0x0, symName: __ZNSt3__112__to_addressB7v160006IcEEPT_S2_, symObjAddr: 0x7470, symBinAddr: 0x100009B90, symSize: 0x10 }
  - { offsetInCU: 0xE99D, offset: 0xE99D, size: 0x8, addend: 0x0, symName: __ZNSt3__19use_facetB7v160006INS_5ctypeIcEEEERKT_RKNS_6localeE, symObjAddr: 0x7700, symBinAddr: 0x100009E20, symSize: 0x30 }
  - { offsetInCU: 0xEE6C, offset: 0xEE6C, size: 0x8, addend: 0x0, symName: __ZNSt3__118__constexpr_strlenB7v160006EPKc, symObjAddr: 0x7790, symBinAddr: 0x100009EB0, symSize: 0x20 }
  - { offsetInCU: 0xEE98, offset: 0xEE98, size: 0x8, addend: 0x0, symName: __ZNSt3__122__make_exception_guardB7v160006INS_6vectorI11DroneFlightNS_9allocatorIS2_EEE16__destroy_vectorEEENS_28__exception_guard_exceptionsIT_EES8_, symObjAddr: 0x78C0, symBinAddr: 0x100009FE0, symSize: 0x40 }
  - { offsetInCU: 0xEECD, offset: 0xEECD, size: 0x8, addend: 0x0, symName: __ZNSt3__119__debug_db_insert_cB7v160006INS_6vectorI11DroneFlightNS_9allocatorIS2_EEEEEEvPT_, symObjAddr: 0x7930, symBinAddr: 0x10000A050, symSize: 0x10 }
  - { offsetInCU: 0xEEFE, offset: 0xEEFE, size: 0x8, addend: 0x0, symName: __ZNSt3__119__allocate_at_leastB7v160006INS_9allocatorI11DroneFlightEEEENS_19__allocation_resultINS_16allocator_traitsIT_E7pointerEEERS6_m, symObjAddr: 0x7C80, symBinAddr: 0x10000A3A0, symSize: 0x40 }
  - { offsetInCU: 0xEF41, offset: 0xEF41, size: 0x8, addend: 0x0, symName: __ZNSt3__112__to_addressB7v160006I11DroneFlightEEPT_S3_, symObjAddr: 0x7F60, symBinAddr: 0x10000A680, symSize: 0x10 }
  - { offsetInCU: 0xEF76, offset: 0xEF76, size: 0x8, addend: 0x0, symName: __ZNSt3__118__debug_db_erase_cB7v160006INS_6vectorI11DroneFlightNS_9allocatorIS2_EEEEEEvPT_, symObjAddr: 0x8260, symBinAddr: 0x10000A980, symSize: 0x10 }
  - { offsetInCU: 0xEFA7, offset: 0xEFA7, size: 0x8, addend: 0x0, symName: __ZNSt3__118__debug_db_erase_cB7v160006INS_6vectorI8DropZoneNS_9allocatorIS2_EEEEEEvPT_, symObjAddr: 0x8620, symBinAddr: 0x10000AD40, symSize: 0x10 }
  - { offsetInCU: 0xEFD8, offset: 0xEFD8, size: 0x8, addend: 0x0, symName: __ZNSt3__122__make_exception_guardB7v160006INS_6vectorI8DropZoneNS_9allocatorIS2_EEE16__destroy_vectorEEENS_28__exception_guard_exceptionsIT_EES8_, symObjAddr: 0x8710, symBinAddr: 0x10000AE30, symSize: 0x40 }
  - { offsetInCU: 0xF00D, offset: 0xF00D, size: 0x8, addend: 0x0, symName: __ZNSt3__119__allocate_at_leastB7v160006INS_9allocatorI8DropZoneEEEENS_19__allocation_resultINS_16allocator_traitsIT_E7pointerEEERS6_m, symObjAddr: 0x89C0, symBinAddr: 0x10000B0E0, symSize: 0x40 }
  - { offsetInCU: 0xF050, offset: 0xF050, size: 0x8, addend: 0x0, symName: __ZNSt3__142__uninitialized_allocator_move_if_noexceptB7v160006INS_9allocatorI8DropZoneEENS_16reverse_iteratorIPS2_EES6_S2_vEET1_RT_T0_SA_S7_, symObjAddr: 0x9330, symBinAddr: 0x10000BA50, symSize: 0x70 }
  - { offsetInCU: 0xF0CC, offset: 0xF0CC, size: 0x8, addend: 0x0, symName: __ZNSt3__14swapB7v160006IP8DropZoneEENS_9enable_ifIXaasr21is_move_constructibleIT_EE5valuesr18is_move_assignableIS4_EE5valueEvE4typeERS4_S7_, symObjAddr: 0x93F0, symBinAddr: 0x10000BB10, symSize: 0x40 }
  - { offsetInCU: 0xF11D, offset: 0xF11D, size: 0x8, addend: 0x0, symName: __ZNSt3__14moveB7v160006INS_16reverse_iteratorIP8DropZoneEES4_EET0_T_S6_S5_, symObjAddr: 0x9430, symBinAddr: 0x10000BB50, symSize: 0x80 }
  - { offsetInCU: 0xF177, offset: 0xF177, size: 0x8, addend: 0x0, symName: __ZNSt3__16__moveB7v160006INS_17_ClassicAlgPolicyENS_16reverse_iteratorIP8DropZoneEES5_S5_EENS_4pairIT0_T2_EES7_T1_S8_, symObjAddr: 0x94B0, symBinAddr: 0x10000BBD0, symSize: 0x90 }
  - { offsetInCU: 0xF1E3, offset: 0xF1E3, size: 0x8, addend: 0x0, symName: __ZNSt3__123__dispatch_copy_or_moveB7v160006INS_17_ClassicAlgPolicyENS_11__move_loopIS1_EENS_14__move_trivialENS_16reverse_iteratorIP8DropZoneEES8_S8_EENS_4pairIT2_T4_EESA_T3_SB_, symObjAddr: 0x9540, symBinAddr: 0x10000BC60, symSize: 0x90 }
  - { offsetInCU: 0xF261, offset: 0xF261, size: 0x8, addend: 0x0, symName: __ZNSt3__121__unwrap_and_dispatchB7v160006INS_10__overloadINS_11__move_loopINS_17_ClassicAlgPolicyEEENS_14__move_trivialEEENS_16reverse_iteratorIP8DropZoneEESA_SA_Li0EEENS_4pairIT0_T2_EESC_T1_SD_, symObjAddr: 0x95D0, symBinAddr: 0x10000BCF0, symSize: 0x210 }
  - { offsetInCU: 0xF2F0, offset: 0xF2F0, size: 0x8, addend: 0x0, symName: __ZNSt3__114__unwrap_rangeB7v160006INS_16reverse_iteratorIP8DropZoneEES4_EENS_4pairIT0_S6_EET_S8_, symObjAddr: 0x97E0, symBinAddr: 0x10000BF00, symSize: 0x90 }
  - { offsetInCU: 0xF410, offset: 0xF410, size: 0x8, addend: 0x0, symName: __ZNSt3__113__unwrap_iterB7v160006INS_16reverse_iteratorIP8DropZoneEENS_18__unwrap_iter_implIS4_Lb0EEELi0EEEDTclsrT0_8__unwrapclsr3stdE7declvalIT_EEEES8_, symObjAddr: 0x9910, symBinAddr: 0x10000C030, symSize: 0x40 }
  - { offsetInCU: 0xF454, offset: 0xF454, size: 0x8, addend: 0x0, symName: __ZNSt3__19make_pairB7v160006INS_16reverse_iteratorIP8DropZoneEES4_EENS_4pairINS_18__unwrap_ref_decayIT_E4typeENS6_IT0_E4typeEEEOS7_OSA_, symObjAddr: 0x9950, symBinAddr: 0x10000C070, symSize: 0x30 }
  - { offsetInCU: 0xF4A3, offset: 0xF4A3, size: 0x8, addend: 0x0, symName: __ZNSt3__114__rewrap_rangeB7v160006INS_16reverse_iteratorIP8DropZoneEES4_EET_S5_T0_, symObjAddr: 0x9980, symBinAddr: 0x10000C0A0, symSize: 0x60 }
  - { offsetInCU: 0xF4EF, offset: 0xF4EF, size: 0x8, addend: 0x0, symName: __ZNSt3__113__rewrap_iterB7v160006INS_16reverse_iteratorIP8DropZoneEES4_NS_18__unwrap_iter_implIS4_Lb0EEEEET_S7_T0_, symObjAddr: 0x99E0, symBinAddr: 0x10000C100, symSize: 0x70 }
  - { offsetInCU: 0xF544, offset: 0xF544, size: 0x8, addend: 0x0, symName: __ZNSt3__1neB7v160006IP8DropZoneS2_EEbRKNS_16reverse_iteratorIT_EERKNS3_IT0_EE, symObjAddr: 0x9A50, symBinAddr: 0x10000C170, symSize: 0x40 }
  - { offsetInCU: 0xF5FC, offset: 0xF5FC, size: 0x8, addend: 0x0, symName: __ZNSt3__118__debug_db_erase_cB7v160006INS_6vectorIdNS_9allocatorIdEEEEEEvPT_, symObjAddr: 0xA010, symBinAddr: 0x10000C730, symSize: 0x10 }
  - { offsetInCU: 0xF62D, offset: 0xF62D, size: 0x8, addend: 0x0, symName: __ZNSt3__112__to_addressB7v160006IdEEPT_S2_, symObjAddr: 0xA120, symBinAddr: 0x10000C840, symSize: 0x10 }
  - { offsetInCU: 0xF662, offset: 0xF662, size: 0x8, addend: 0x0, symName: __ZNSt3__122__make_exception_guardB7v160006INS_6vectorIdNS_9allocatorIdEEE16__destroy_vectorEEENS_28__exception_guard_exceptionsIT_EES7_, symObjAddr: 0xA400, symBinAddr: 0x10000CB20, symSize: 0x40 }
  - { offsetInCU: 0xF697, offset: 0xF697, size: 0x8, addend: 0x0, symName: __ZNSt3__119__debug_db_insert_cB7v160006INS_6vectorIdNS_9allocatorIdEEEEEEvPT_, symObjAddr: 0xA440, symBinAddr: 0x10000CB60, symSize: 0x10 }
  - { offsetInCU: 0xF6C8, offset: 0xF6C8, size: 0x8, addend: 0x0, symName: __ZNSt3__119__allocate_at_leastB7v160006INS_9allocatorIdEEEENS_19__allocation_resultINS_16allocator_traitsIT_E7pointerEEERS5_m, symObjAddr: 0xA7A0, symBinAddr: 0x10000CEC0, symSize: 0x40 }
  - { offsetInCU: 0xF70B, offset: 0xF70B, size: 0x8, addend: 0x0, symName: __ZNSt3__130__uninitialized_allocator_copyB7v160006INS_9allocatorIdEEddLPv0EEEPT0_RT_PKS4_S9_S5_, symObjAddr: 0xA9F0, symBinAddr: 0x10000D110, symSize: 0x30 }
  - { offsetInCU: 0xF783, offset: 0xF783, size: 0x8, addend: 0x0, symName: __ZNSt3__14copyB7v160006IPKdPdEET0_T_S5_S4_, symObjAddr: 0xAA80, symBinAddr: 0x10000D1A0, symSize: 0x40 }
  - { offsetInCU: 0xF7DD, offset: 0xF7DD, size: 0x8, addend: 0x0, symName: __ZNSt3__16__copyB7v160006INS_17_ClassicAlgPolicyEPKdS3_PdEENS_4pairIT0_T2_EES6_T1_S7_, symObjAddr: 0xAAC0, symBinAddr: 0x10000D1E0, symSize: 0x40 }
  - { offsetInCU: 0xF849, offset: 0xF849, size: 0x8, addend: 0x0, symName: __ZNSt3__123__dispatch_copy_or_moveB7v160006INS_17_ClassicAlgPolicyENS_11__copy_loopIS1_EENS_14__copy_trivialEPKdS6_PdEENS_4pairIT2_T4_EES9_T3_SA_, symObjAddr: 0xAB00, symBinAddr: 0x10000D220, symSize: 0x40 }
  - { offsetInCU: 0xF8C7, offset: 0xF8C7, size: 0x8, addend: 0x0, symName: __ZNSt3__121__unwrap_and_dispatchB7v160006INS_10__overloadINS_11__copy_loopINS_17_ClassicAlgPolicyEEENS_14__copy_trivialEEEPKdS8_PdLi0EEENS_4pairIT0_T2_EESB_T1_SC_, symObjAddr: 0xAB40, symBinAddr: 0x10000D260, symSize: 0xB0 }
  - { offsetInCU: 0xF956, offset: 0xF956, size: 0x8, addend: 0x0, symName: __ZNSt3__114__unwrap_rangeB7v160006IPKdS2_EENS_4pairIT0_S4_EET_S6_, symObjAddr: 0xABF0, symBinAddr: 0x10000D310, symSize: 0x50 }
  - { offsetInCU: 0xFAA5, offset: 0xFAA5, size: 0x8, addend: 0x0, symName: __ZNSt3__113__unwrap_iterB7v160006IPdNS_18__unwrap_iter_implIS1_Lb1EEELi0EEEDTclsrT0_8__unwrapclsr3stdE7declvalIT_EEEES5_, symObjAddr: 0xAC80, symBinAddr: 0x10000D3A0, symSize: 0x20 }
  - { offsetInCU: 0xFAE9, offset: 0xFAE9, size: 0x8, addend: 0x0, symName: __ZNSt3__19make_pairB7v160006IPKdPdEENS_4pairINS_18__unwrap_ref_decayIT_E4typeENS5_IT0_E4typeEEEOS6_OS9_, symObjAddr: 0xACA0, symBinAddr: 0x10000D3C0, symSize: 0x30 }
  - { offsetInCU: 0xFB38, offset: 0xFB38, size: 0x8, addend: 0x0, symName: __ZNSt3__114__rewrap_rangeB7v160006IPKdS2_EET_S3_T0_, symObjAddr: 0xACD0, symBinAddr: 0x10000D3F0, symSize: 0x30 }
  - { offsetInCU: 0xFB84, offset: 0xFB84, size: 0x8, addend: 0x0, symName: __ZNSt3__113__rewrap_iterB7v160006IPdS1_NS_18__unwrap_iter_implIS1_Lb1EEEEET_S4_T0_, symObjAddr: 0xAD00, symBinAddr: 0x10000D420, symSize: 0x40 }
  - { offsetInCU: 0xFBD9, offset: 0xFBD9, size: 0x8, addend: 0x0, symName: __ZNSt3__19make_pairB7v160006IPKdS2_EENS_4pairINS_18__unwrap_ref_decayIT_E4typeENS4_IT0_E4typeEEEOS5_OS8_, symObjAddr: 0xAD40, symBinAddr: 0x10000D460, symSize: 0x30 }
  - { offsetInCU: 0xFC28, offset: 0xFC28, size: 0x8, addend: 0x0, symName: __ZNSt3__113__unwrap_iterB7v160006IPKdNS_18__unwrap_iter_implIS2_Lb1EEELi0EEEDTclsrT0_8__unwrapclsr3stdE7declvalIT_EEEES6_, symObjAddr: 0xAD70, symBinAddr: 0x10000D490, symSize: 0x20 }
  - { offsetInCU: 0xFD93, offset: 0xFD93, size: 0x8, addend: 0x0, symName: __ZNSt3__112__to_addressB7v160006IKdEEPT_S3_, symObjAddr: 0xAE10, symBinAddr: 0x10000D530, symSize: 0x10 }
  - { offsetInCU: 0xFDC8, offset: 0xFDC8, size: 0x8, addend: 0x0, symName: __ZNSt3__119__copy_trivial_implB7v160006IKddEENS_4pairIPT_PT0_EES4_S4_S6_, symObjAddr: 0xAE20, symBinAddr: 0x10000D540, symSize: 0x70 }
  - { offsetInCU: 0xFE30, offset: 0xFE30, size: 0x8, addend: 0x0, symName: __ZNSt3__19make_pairB7v160006IRPKdPdEENS_4pairINS_18__unwrap_ref_decayIT_E4typeENS6_IT0_E4typeEEEOS7_OSA_, symObjAddr: 0xAE90, symBinAddr: 0x10000D5B0, symSize: 0x30 }
  - { offsetInCU: 0xFED2, offset: 0xFED2, size: 0x8, addend: 0x0, symName: __ZNSt3__113__rewrap_iterB7v160006IPKdS2_NS_18__unwrap_iter_implIS2_Lb1EEEEET_S5_T0_, symObjAddr: 0xAFA0, symBinAddr: 0x10000D6C0, symSize: 0x40 }
  - { offsetInCU: 0xFF27, offset: 0xFF27, size: 0x8, addend: 0x0, symName: __ZNSt3__122__make_exception_guardB7v160006INS_6vectorINS1_IdNS_9allocatorIdEEEENS2_IS4_EEE16__destroy_vectorEEENS_28__exception_guard_exceptionsIT_EES9_, symObjAddr: 0xB230, symBinAddr: 0x10000D950, symSize: 0x40 }
  - { offsetInCU: 0xFF5C, offset: 0xFF5C, size: 0x8, addend: 0x0, symName: __ZNSt3__119__debug_db_insert_cB7v160006INS_6vectorINS1_IdNS_9allocatorIdEEEENS2_IS4_EEEEEEvPT_, symObjAddr: 0xB2A0, symBinAddr: 0x10000D9C0, symSize: 0x10 }
  - { offsetInCU: 0xFF8D, offset: 0xFF8D, size: 0x8, addend: 0x0, symName: __ZNSt3__119__allocate_at_leastB7v160006INS_9allocatorINS_6vectorIdNS1_IdEEEEEEEENS_19__allocation_resultINS_16allocator_traitsIT_E7pointerEEERS8_m, symObjAddr: 0xB620, symBinAddr: 0x10000DD40, symSize: 0x40 }
  - { offsetInCU: 0xFFD0, offset: 0xFFD0, size: 0x8, addend: 0x0, symName: __ZNSt3__112__to_addressB7v160006INS_6vectorIdNS_9allocatorIdEEEEEEPT_S6_, symObjAddr: 0xB900, symBinAddr: 0x10000E020, symSize: 0x10 }
  - { offsetInCU: 0x10005, offset: 0x10005, size: 0x8, addend: 0x0, symName: __ZNSt3__130__uninitialized_allocator_copyB7v160006INS_9allocatorINS_6vectorIdNS1_IdEEEEEEPKS4_S7_PS4_EET2_RT_T0_T1_S9_, symObjAddr: 0xB990, symBinAddr: 0x10000E0B0, symSize: 0x100 }
  - { offsetInCU: 0x100A3, offset: 0x100A3, size: 0x8, addend: 0x0, symName: __ZNSt3__122__make_exception_guardB7v160006INS_29_AllocatorDestroyRangeReverseINS_9allocatorINS_6vectorIdNS2_IdEEEEEEPS5_EEEENS_28__exception_guard_exceptionsIT_EESA_, symObjAddr: 0xBAF0, symBinAddr: 0x10000E210, symSize: 0x60 }
  - { offsetInCU: 0x100D8, offset: 0x100D8, size: 0x8, addend: 0x0, symName: __ZNSt3__130__uninitialized_allocator_copyB7v160006INS_9allocatorIdEEPdS3_S3_EET2_RT_T0_T1_S4_, symObjAddr: 0xBF40, symBinAddr: 0x10000E660, symSize: 0x100 }
  - { offsetInCU: 0x10176, offset: 0x10176, size: 0x8, addend: 0x0, symName: __ZNSt3__122__make_exception_guardB7v160006INS_29_AllocatorDestroyRangeReverseINS_9allocatorIdEEPdEEEENS_28__exception_guard_exceptionsIT_EES7_, symObjAddr: 0xC040, symBinAddr: 0x10000E760, symSize: 0x60 }
  - { offsetInCU: 0x101AB, offset: 0x101AB, size: 0x8, addend: 0x0, symName: __ZNSt3__119__allocator_destroyB7v160006INS_9allocatorIdEENS_16reverse_iteratorIPdEES5_EEvRT_T0_T1_, symObjAddr: 0xC2D0, symBinAddr: 0x10000E9F0, symSize: 0x70 }
  - { offsetInCU: 0x1020E, offset: 0x1020E, size: 0x8, addend: 0x0, symName: __ZNSt3__1neB7v160006IPdS1_EEbRKNS_16reverse_iteratorIT_EERKNS2_IT0_EE, symObjAddr: 0xC370, symBinAddr: 0x10000EA90, symSize: 0x40 }
  - { offsetInCU: 0x1025A, offset: 0x1025A, size: 0x8, addend: 0x0, symName: __ZNSt3__112__to_addressB7v160006INS_16reverse_iteratorIPdEEvEENS_5decayIDTclsr19__to_address_helperIT_EE6__callclsr3stdE7declvalIRKS5_EEEEE4typeES7_, symObjAddr: 0xC3B0, symBinAddr: 0x10000EAD0, symSize: 0x20 }
  - { offsetInCU: 0x102B9, offset: 0x102B9, size: 0x8, addend: 0x0, symName: __ZNSt3__119__allocator_destroyB7v160006INS_9allocatorINS_6vectorIdNS1_IdEEEEEENS_16reverse_iteratorIPS4_EES8_EEvRT_T0_T1_, symObjAddr: 0xC570, symBinAddr: 0x10000EC90, symSize: 0x70 }
  - { offsetInCU: 0x1031C, offset: 0x1031C, size: 0x8, addend: 0x0, symName: __ZNSt3__1neB7v160006IPNS_6vectorIdNS_9allocatorIdEEEES5_EEbRKNS_16reverse_iteratorIT_EERKNS6_IT0_EE, symObjAddr: 0xC610, symBinAddr: 0x10000ED30, symSize: 0x40 }
  - { offsetInCU: 0x10368, offset: 0x10368, size: 0x8, addend: 0x0, symName: __ZNSt3__112__to_addressB7v160006INS_16reverse_iteratorIPNS_6vectorIdNS_9allocatorIdEEEEEEvEENS_5decayIDTclsr19__to_address_helperIT_EE6__callclsr3stdE7declvalIRKS9_EEEEE4typeESB_, symObjAddr: 0xC680, symBinAddr: 0x10000EDA0, symSize: 0x20 }
  - { offsetInCU: 0x103C7, offset: 0x103C7, size: 0x8, addend: 0x0, symName: __ZNSt3__118__debug_db_erase_cB7v160006INS_6vectorINS1_IdNS_9allocatorIdEEEENS2_IS4_EEEEEEvPT_, symObjAddr: 0xC960, symBinAddr: 0x10000F080, symSize: 0x10 }
  - { offsetInCU: 0x10A9B, offset: 0x10A9B, size: 0x8, addend: 0x0, symName: __ZSt28__throw_bad_array_new_lengthB7v160006v, symObjAddr: 0x3C20, symBinAddr: 0x100006340, symSize: 0x40 }
  - { offsetInCU: 0x1114B, offset: 0x1114B, size: 0x8, addend: 0x0, symName: __ZNSt3__16vectorImNS_9allocatorImEEE26__swap_out_circular_bufferERNS_14__split_bufferImRS2_EE, symObjAddr: 0x3560, symBinAddr: 0x100005C80, symSize: 0x130 }
  - { offsetInCU: 0x111B9, offset: 0x111B9, size: 0x8, addend: 0x0, symName: __ZNSt3__16vectorImNS_9allocatorImEEE26__swap_out_circular_bufferERNS_14__split_bufferImRS2_EEPm, symObjAddr: 0x4D40, symBinAddr: 0x100007460, symSize: 0x170 }
  - { offsetInCU: 0x115C5, offset: 0x115C5, size: 0x8, addend: 0x0, symName: __ZNSt3__16vectorI8DropZoneNS_9allocatorIS1_EEE26__swap_out_circular_bufferERNS_14__split_bufferIS1_RS3_EE, symObjAddr: 0x8FF0, symBinAddr: 0x10000B710, symSize: 0x130 }
  - { offsetInCU: 0x13B29, offset: 0x13B29, size: 0x8, addend: 0x0, symName: __Z6kMeansRNSt3__16vectorI8DropZoneNS_9allocatorIS1_EEEE, symObjAddr: 0x0, symBinAddr: 0x100002720, symSize: 0x10 }
  - { offsetInCU: 0x13B52, offset: 0x13B52, size: 0x8, addend: 0x0, symName: _main, symObjAddr: 0x10, symBinAddr: 0x100002730, symSize: 0xFF0 }
  - { offsetInCU: 0x13DFB, offset: 0x13DFB, size: 0x8, addend: 0x0, symName: __ZNSt3__16vectorI11DroneFlightNS_9allocatorIS1_EEEC1Em, symObjAddr: 0x1040, symBinAddr: 0x100003760, symSize: 0x30 }
  - { offsetInCU: 0x13E35, offset: 0x13E35, size: 0x8, addend: 0x0, symName: __ZN11DroneFlightC1Ev, symObjAddr: 0x1070, symBinAddr: 0x100003790, symSize: 0x20 }
  - { offsetInCU: 0x13E5F, offset: 0x13E5F, size: 0x8, addend: 0x0, symName: __ZNSt3__16vectorI11DroneFlightNS_9allocatorIS1_EEEixB7v160006Em, symObjAddr: 0x1090, symBinAddr: 0x1000037B0, symSize: 0x20 }
  - { offsetInCU: 0x13E9A, offset: 0x13E9A, size: 0x8, addend: 0x0, symName: __ZN11DroneFlightaSEOS_, symObjAddr: 0x10B0, symBinAddr: 0x1000037D0, symSize: 0x80 }
  - { offsetInCU: 0x13ECA, offset: 0x13ECA, size: 0x8, addend: 0x0, symName: __ZN11DroneFlightD1Ev, symObjAddr: 0x1130, symBinAddr: 0x100003850, symSize: 0x20 }
  - { offsetInCU: 0x13EF5, offset: 0x13EF5, size: 0x8, addend: 0x0, symName: __ZNSt3__16vectorI8DropZoneNS_9allocatorIS1_EEEC1Em, symObjAddr: 0x1150, symBinAddr: 0x100003870, symSize: 0x30 }
  - { offsetInCU: 0x13F2E, offset: 0x13F2E, size: 0x8, addend: 0x0, symName: __ZNSt3__16vectorI8DropZoneNS_9allocatorIS1_EEEixB7v160006Em, symObjAddr: 0x1180, symBinAddr: 0x1000038A0, symSize: 0x20 }
  - { offsetInCU: 0x13F64, offset: 0x13F64, size: 0x8, addend: 0x0, symName: __ZNSt3__114numeric_limitsIdE8infinityB7v160006Ev, symObjAddr: 0x11A0, symBinAddr: 0x1000038C0, symSize: 0x10 }
  - { offsetInCU: 0x13F77, offset: 0x13F77, size: 0x8, addend: 0x0, symName: __ZNSt3__16vectorI8DropZoneNS_9allocatorIS1_EEE5beginB7v160006Ev, symObjAddr: 0x11B0, symBinAddr: 0x1000038D0, symSize: 0x30 }
  - { offsetInCU: 0x13F9D, offset: 0x13F9D, size: 0x8, addend: 0x0, symName: __ZNSt3__16vectorI8DropZoneNS_9allocatorIS1_EEE3endB7v160006Ev, symObjAddr: 0x11E0, symBinAddr: 0x100003900, symSize: 0x30 }
  - { offsetInCU: 0x13FC4, offset: 0x13FC4, size: 0x8, addend: 0x0, symName: __ZNKSt3__111__wrap_iterIP8DropZoneEdeB7v160006Ev, symObjAddr: 0x1240, symBinAddr: 0x100003960, symSize: 0x20 }
  - { offsetInCU: 0x13FE8, offset: 0x13FE8, size: 0x8, addend: 0x0, symName: __ZNSt3__16vectorI8DropZoneNS_9allocatorIS1_EEE9push_backB7v160006ERKS1_, symObjAddr: 0x1260, symBinAddr: 0x100003980, symSize: 0x60 }
  - { offsetInCU: 0x1401E, offset: 0x1401E, size: 0x8, addend: 0x0, symName: __ZNSt3__111__wrap_iterIP8DropZoneEppB7v160006Ev, symObjAddr: 0x12C0, symBinAddr: 0x1000039E0, symSize: 0x20 }
  - { offsetInCU: 0x14042, offset: 0x14042, size: 0x8, addend: 0x0, symName: __ZNSt3__16vectorI11DroneFlightNS_9allocatorIS1_EEE5beginB7v160006Ev, symObjAddr: 0x12E0, symBinAddr: 0x100003A00, symSize: 0x30 }
  - { offsetInCU: 0x14068, offset: 0x14068, size: 0x8, addend: 0x0, symName: __ZNSt3__16vectorI11DroneFlightNS_9allocatorIS1_EEE3endB7v160006Ev, symObjAddr: 0x1310, symBinAddr: 0x100003A30, symSize: 0x30 }
  - { offsetInCU: 0x1408F, offset: 0x1408F, size: 0x8, addend: 0x0, symName: __ZNKSt3__111__wrap_iterIP11DroneFlightEdeB7v160006Ev, symObjAddr: 0x1370, symBinAddr: 0x100003A90, symSize: 0x20 }
  - { offsetInCU: 0x140B4, offset: 0x140B4, size: 0x8, addend: 0x0, symName: __ZN11DroneFlight12arbitraryTSPEv, symObjAddr: 0x1390, symBinAddr: 0x100003AB0, symSize: 0x350 }
  - { offsetInCU: 0x14166, offset: 0x14166, size: 0x8, addend: 0x0, symName: __ZN11DroneFlight8genPermsEm, symObjAddr: 0x16E0, symBinAddr: 0x100003E00, symSize: 0x260 }
  - { offsetInCU: 0x141D1, offset: 0x141D1, size: 0x8, addend: 0x0, symName: __ZNSt3__111__wrap_iterIP11DroneFlightEppB7v160006Ev, symObjAddr: 0x1940, symBinAddr: 0x100004060, symSize: 0x20 }
  - { offsetInCU: 0x141F6, offset: 0x141F6, size: 0x8, addend: 0x0, symName: __ZNSt3__16vectorIdNS_9allocatorIdEEEC1B7v160006ESt16initializer_listIdE, symObjAddr: 0x1960, symBinAddr: 0x100004080, symSize: 0x30 }
  - { offsetInCU: 0x14230, offset: 0x14230, size: 0x8, addend: 0x0, symName: __ZNSt3__16vectorIdNS_9allocatorIdEEED1B7v160006Ev, symObjAddr: 0x1990, symBinAddr: 0x1000040B0, symSize: 0x20 }
  - { offsetInCU: 0x14259, offset: 0x14259, size: 0x8, addend: 0x0, symName: __ZNSt3__16vectorINS0_IdNS_9allocatorIdEEEENS1_IS3_EEEC1B7v160006ESt16initializer_listIS3_E, symObjAddr: 0x19B0, symBinAddr: 0x1000040D0, symSize: 0x30 }
  - { offsetInCU: 0x14292, offset: 0x14292, size: 0x8, addend: 0x0, symName: __ZNKSt3__16vectorINS0_IdNS_9allocatorIdEEEENS1_IS3_EEEixB7v160006Em, symObjAddr: 0x19E0, symBinAddr: 0x100004100, symSize: 0x20 }
  - { offsetInCU: 0x142C7, offset: 0x142C7, size: 0x8, addend: 0x0, symName: __ZNKSt3__16vectorIdNS_9allocatorIdEEEixB7v160006Em, symObjAddr: 0x1A00, symBinAddr: 0x100004120, symSize: 0x20 }
  - { offsetInCU: 0x142FC, offset: 0x142FC, size: 0x8, addend: 0x0, symName: __ZNSt3__16vectorImNS_9allocatorImEEEixB7v160006Em, symObjAddr: 0x1A20, symBinAddr: 0x100004140, symSize: 0x20 }
  - { offsetInCU: 0x14332, offset: 0x14332, size: 0x8, addend: 0x0, symName: __ZNSt3__16vectorINS0_IdNS_9allocatorIdEEEENS1_IS3_EEED1B7v160006Ev, symObjAddr: 0x1A40, symBinAddr: 0x100004160, symSize: 0x20 }
  - { offsetInCU: 0x1435B, offset: 0x1435B, size: 0x8, addend: 0x0, symName: __ZNSt3__16vectorI8DropZoneNS_9allocatorIS1_EEED1B7v160006Ev, symObjAddr: 0x1A60, symBinAddr: 0x100004180, symSize: 0x20 }
  - { offsetInCU: 0x14384, offset: 0x14384, size: 0x8, addend: 0x0, symName: __ZNSt3__16vectorI11DroneFlightNS_9allocatorIS1_EEED1B7v160006Ev, symObjAddr: 0x1A80, symBinAddr: 0x1000041A0, symSize: 0x20 }
  - { offsetInCU: 0x143AD, offset: 0x143AD, size: 0x8, addend: 0x0, symName: __ZN11DroneFlightC2Ev, symObjAddr: 0x1AA0, symBinAddr: 0x1000041C0, symSize: 0x60 }
  - { offsetInCU: 0x143D8, offset: 0x143D8, size: 0x8, addend: 0x0, symName: __ZNSt3__16vectorI8DropZoneNS_9allocatorIS1_EEEC1B7v160006Ev, symObjAddr: 0x1B00, symBinAddr: 0x100004220, symSize: 0x20 }
  - { offsetInCU: 0x14401, offset: 0x14401, size: 0x8, addend: 0x0, symName: __ZNSt3__16vectorImNS_9allocatorImEEEC1B7v160006Ev, symObjAddr: 0x1B20, symBinAddr: 0x100004240, symSize: 0x20 }
  - { offsetInCU: 0x1442A, offset: 0x1442A, size: 0x8, addend: 0x0, symName: __ZNSt3__16vectorI8DropZoneNS_9allocatorIS1_EEEC2B7v160006Ev, symObjAddr: 0x1B40, symBinAddr: 0x100004260, symSize: 0x60 }
  - { offsetInCU: 0x1445D, offset: 0x1445D, size: 0x8, addend: 0x0, symName: __ZNSt3__117__compressed_pairIP8DropZoneNS_9allocatorIS1_EEEC1B7v160006IDnNS_18__default_init_tagEEEOT_OT0_, symObjAddr: 0x1BA0, symBinAddr: 0x1000042C0, symSize: 0x30 }
  - { offsetInCU: 0x144B4, offset: 0x144B4, size: 0x8, addend: 0x0, symName: __ZNSt3__117__compressed_pairIP8DropZoneNS_9allocatorIS1_EEEC2B7v160006IDnNS_18__default_init_tagEEEOT_OT0_, symObjAddr: 0x1BF0, symBinAddr: 0x100004310, symSize: 0x40 }
  - { offsetInCU: 0x1450B, offset: 0x1450B, size: 0x8, addend: 0x0, symName: __ZNSt3__122__compressed_pair_elemIP8DropZoneLi0ELb0EEC2B7v160006IDnvEEOT_, symObjAddr: 0x1C30, symBinAddr: 0x100004350, symSize: 0x20 }
  - { offsetInCU: 0x1454C, offset: 0x1454C, size: 0x8, addend: 0x0, symName: __ZNSt3__122__compressed_pair_elemINS_9allocatorI8DropZoneEELi1ELb1EEC2B7v160006ENS_18__default_init_tagE, symObjAddr: 0x1C50, symBinAddr: 0x100004370, symSize: 0x20 }
  - { offsetInCU: 0x1457F, offset: 0x1457F, size: 0x8, addend: 0x0, symName: __ZNSt3__19allocatorI8DropZoneEC2B7v160006Ev, symObjAddr: 0x1C70, symBinAddr: 0x100004390, symSize: 0x20 }
  - { offsetInCU: 0x145A8, offset: 0x145A8, size: 0x8, addend: 0x0, symName: __ZNSt3__116__non_trivial_ifILb1ENS_9allocatorI8DropZoneEEEC2B7v160006Ev, symObjAddr: 0x1C90, symBinAddr: 0x1000043B0, symSize: 0x10 }
  - { offsetInCU: 0x145D1, offset: 0x145D1, size: 0x8, addend: 0x0, symName: __ZNSt3__16vectorImNS_9allocatorImEEEC2B7v160006Ev, symObjAddr: 0x1CA0, symBinAddr: 0x1000043C0, symSize: 0x60 }
  - { offsetInCU: 0x145FA, offset: 0x145FA, size: 0x8, addend: 0x0, symName: __ZNSt3__117__compressed_pairIPmNS_9allocatorImEEEC1B7v160006IDnNS_18__default_init_tagEEEOT_OT0_, symObjAddr: 0x1D00, symBinAddr: 0x100004420, symSize: 0x30 }
  - { offsetInCU: 0x14651, offset: 0x14651, size: 0x8, addend: 0x0, symName: __ZNSt3__117__compressed_pairIPmNS_9allocatorImEEEC2B7v160006IDnNS_18__default_init_tagEEEOT_OT0_, symObjAddr: 0x1D40, symBinAddr: 0x100004460, symSize: 0x40 }
  - { offsetInCU: 0x146A8, offset: 0x146A8, size: 0x8, addend: 0x0, symName: __ZNSt3__122__compressed_pair_elemIPmLi0ELb0EEC2B7v160006IDnvEEOT_, symObjAddr: 0x1D80, symBinAddr: 0x1000044A0, symSize: 0x20 }
  - { offsetInCU: 0x146E9, offset: 0x146E9, size: 0x8, addend: 0x0, symName: __ZNSt3__122__compressed_pair_elemINS_9allocatorImEELi1ELb1EEC2B7v160006ENS_18__default_init_tagE, symObjAddr: 0x1DA0, symBinAddr: 0x1000044C0, symSize: 0x20 }
  - { offsetInCU: 0x1471C, offset: 0x1471C, size: 0x8, addend: 0x0, symName: __ZNSt3__19allocatorImEC2B7v160006Ev, symObjAddr: 0x1DC0, symBinAddr: 0x1000044E0, symSize: 0x20 }
  - { offsetInCU: 0x14745, offset: 0x14745, size: 0x8, addend: 0x0, symName: __ZNSt3__116__non_trivial_ifILb1ENS_9allocatorImEEEC2B7v160006Ev, symObjAddr: 0x1DE0, symBinAddr: 0x100004500, symSize: 0x10 }
  - { offsetInCU: 0x1476D, offset: 0x1476D, size: 0x8, addend: 0x0, symName: __ZNSt3__16vectorI8DropZoneNS_9allocatorIS1_EEEaSB7v160006EOS4_, symObjAddr: 0x1DF0, symBinAddr: 0x100004510, symSize: 0x30 }
  - { offsetInCU: 0x147A2, offset: 0x147A2, size: 0x8, addend: 0x0, symName: __ZNSt3__16vectorImNS_9allocatorImEEEaSB7v160006EOS3_, symObjAddr: 0x1E20, symBinAddr: 0x100004540, symSize: 0x30 }
  - { offsetInCU: 0x147D7, offset: 0x147D7, size: 0x8, addend: 0x0, symName: __ZNSt3__16vectorI8DropZoneNS_9allocatorIS1_EEE13__move_assignERS4_NS_17integral_constantIbLb1EEE, symObjAddr: 0x1E50, symBinAddr: 0x100004570, symSize: 0xB0 }
  - { offsetInCU: 0x14817, offset: 0x14817, size: 0x8, addend: 0x0, symName: __ZNSt3__16vectorI8DropZoneNS_9allocatorIS1_EEE13__vdeallocateEv, symObjAddr: 0x1F00, symBinAddr: 0x100004620, symSize: 0x80 }
  - { offsetInCU: 0x1483E, offset: 0x1483E, size: 0x8, addend: 0x0, symName: __ZNSt3__16vectorI8DropZoneNS_9allocatorIS1_EEE19__move_assign_allocB7v160006ERS4_, symObjAddr: 0x1F80, symBinAddr: 0x1000046A0, symSize: 0x30 }
  - { offsetInCU: 0x14872, offset: 0x14872, size: 0x8, addend: 0x0, symName: __ZNSt3__16vectorI8DropZoneNS_9allocatorIS1_EEE9__end_capB7v160006Ev, symObjAddr: 0x1FB0, symBinAddr: 0x1000046D0, symSize: 0x20 }
  - { offsetInCU: 0x14897, offset: 0x14897, size: 0x8, addend: 0x0, symName: __ZNSt3__16vectorI8DropZoneNS_9allocatorIS1_EEE5clearB7v160006Ev, symObjAddr: 0x1FE0, symBinAddr: 0x100004700, symSize: 0x50 }
  - { offsetInCU: 0x148CB, offset: 0x148CB, size: 0x8, addend: 0x0, symName: __ZNSt3__116allocator_traitsINS_9allocatorI8DropZoneEEE10deallocateB7v160006ERS3_PS2_m, symObjAddr: 0x2030, symBinAddr: 0x100004750, symSize: 0x30 }
  - { offsetInCU: 0x1490D, offset: 0x1490D, size: 0x8, addend: 0x0, symName: __ZNSt3__16vectorI8DropZoneNS_9allocatorIS1_EEE7__allocB7v160006Ev, symObjAddr: 0x2060, symBinAddr: 0x100004780, symSize: 0x20 }
  - { offsetInCU: 0x14932, offset: 0x14932, size: 0x8, addend: 0x0, symName: __ZNKSt3__16vectorI8DropZoneNS_9allocatorIS1_EEE8capacityB7v160006Ev, symObjAddr: 0x2080, symBinAddr: 0x1000047A0, symSize: 0x40 }
  - { offsetInCU: 0x14957, offset: 0x14957, size: 0x8, addend: 0x0, symName: __ZNKSt3__16vectorI8DropZoneNS_9allocatorIS1_EEE4sizeB7v160006Ev, symObjAddr: 0x20C0, symBinAddr: 0x1000047E0, symSize: 0x30 }
  - { offsetInCU: 0x1497C, offset: 0x1497C, size: 0x8, addend: 0x0, symName: __ZNSt3__16vectorI8DropZoneNS_9allocatorIS1_EEE7__clearB7v160006Ev, symObjAddr: 0x20F0, symBinAddr: 0x100004810, symSize: 0x20 }
  - { offsetInCU: 0x149A1, offset: 0x149A1, size: 0x8, addend: 0x0, symName: __ZNKSt3__16vectorI8DropZoneNS_9allocatorIS1_EEE17__annotate_shrinkB7v160006Em, symObjAddr: 0x2110, symBinAddr: 0x100004830, symSize: 0xA0 }
  - { offsetInCU: 0x149D5, offset: 0x149D5, size: 0x8, addend: 0x0, symName: __ZNSt3__16vectorI8DropZoneNS_9allocatorIS1_EEE22__base_destruct_at_endB7v160006EPS1_, symObjAddr: 0x21C0, symBinAddr: 0x1000048E0, symSize: 0x80 }
  - { offsetInCU: 0x14A18, offset: 0x14A18, size: 0x8, addend: 0x0, symName: __ZNSt3__116allocator_traitsINS_9allocatorI8DropZoneEEE7destroyB7v160006IS2_vEEvRS3_PT_, symObjAddr: 0x2240, symBinAddr: 0x100004960, symSize: 0x30 }
  - { offsetInCU: 0x14A55, offset: 0x14A55, size: 0x8, addend: 0x0, symName: __ZNSt3__19allocatorI8DropZoneE7destroyB7v160006EPS1_, symObjAddr: 0x2280, symBinAddr: 0x1000049A0, symSize: 0x10 }
  - { offsetInCU: 0x14A88, offset: 0x14A88, size: 0x8, addend: 0x0, symName: __ZNKSt3__16vectorI8DropZoneNS_9allocatorIS1_EEE31__annotate_contiguous_containerB7v160006EPKvS6_S6_S6_, symObjAddr: 0x2290, symBinAddr: 0x1000049B0, symSize: 0x20 }
  - { offsetInCU: 0x14AD9, offset: 0x14AD9, size: 0x8, addend: 0x0, symName: __ZNKSt3__16vectorI8DropZoneNS_9allocatorIS1_EEE4dataB7v160006Ev, symObjAddr: 0x22B0, symBinAddr: 0x1000049D0, symSize: 0x20 }
  - { offsetInCU: 0x14AFE, offset: 0x14AFE, size: 0x8, addend: 0x0, symName: __ZNSt3__19allocatorI8DropZoneE10deallocateB7v160006EPS1_m, symObjAddr: 0x22D0, symBinAddr: 0x1000049F0, symSize: 0x50 }
  - { offsetInCU: 0x14B3F, offset: 0x14B3F, size: 0x8, addend: 0x0, symName: __ZNSt3__117__compressed_pairIP8DropZoneNS_9allocatorIS1_EEE6secondB7v160006Ev, symObjAddr: 0x2440, symBinAddr: 0x100004B60, symSize: 0x20 }
  - { offsetInCU: 0x14B64, offset: 0x14B64, size: 0x8, addend: 0x0, symName: __ZNSt3__122__compressed_pair_elemINS_9allocatorI8DropZoneEELi1ELb1EE5__getB7v160006Ev, symObjAddr: 0x2460, symBinAddr: 0x100004B80, symSize: 0x10 }
  - { offsetInCU: 0x14B89, offset: 0x14B89, size: 0x8, addend: 0x0, symName: __ZNKSt3__16vectorI8DropZoneNS_9allocatorIS1_EEE9__end_capB7v160006Ev, symObjAddr: 0x2470, symBinAddr: 0x100004B90, symSize: 0x20 }
  - { offsetInCU: 0x14BAE, offset: 0x14BAE, size: 0x8, addend: 0x0, symName: __ZNKSt3__117__compressed_pairIP8DropZoneNS_9allocatorIS1_EEE5firstB7v160006Ev, symObjAddr: 0x2490, symBinAddr: 0x100004BB0, symSize: 0x20 }
  - { offsetInCU: 0x14BD3, offset: 0x14BD3, size: 0x8, addend: 0x0, symName: __ZNKSt3__122__compressed_pair_elemIP8DropZoneLi0ELb0EE5__getB7v160006Ev, symObjAddr: 0x24B0, symBinAddr: 0x100004BD0, symSize: 0x10 }
  - { offsetInCU: 0x14BF8, offset: 0x14BF8, size: 0x8, addend: 0x0, symName: __ZNSt3__16vectorI8DropZoneNS_9allocatorIS1_EEE19__move_assign_allocB7v160006ERS4_NS_17integral_constantIbLb1EEE, symObjAddr: 0x24C0, symBinAddr: 0x100004BE0, symSize: 0x30 }
  - { offsetInCU: 0x14C37, offset: 0x14C37, size: 0x8, addend: 0x0, symName: __ZNSt3__117__compressed_pairIP8DropZoneNS_9allocatorIS1_EEE5firstB7v160006Ev, symObjAddr: 0x24F0, symBinAddr: 0x100004C10, symSize: 0x20 }
  - { offsetInCU: 0x14C5C, offset: 0x14C5C, size: 0x8, addend: 0x0, symName: __ZNSt3__122__compressed_pair_elemIP8DropZoneLi0ELb0EE5__getB7v160006Ev, symObjAddr: 0x2510, symBinAddr: 0x100004C30, symSize: 0x10 }
  - { offsetInCU: 0x14C80, offset: 0x14C80, size: 0x8, addend: 0x0, symName: __ZNSt3__16vectorImNS_9allocatorImEEE13__move_assignERS3_NS_17integral_constantIbLb1EEE, symObjAddr: 0x2520, symBinAddr: 0x100004C40, symSize: 0xB0 }
  - { offsetInCU: 0x14CC0, offset: 0x14CC0, size: 0x8, addend: 0x0, symName: __ZNSt3__16vectorImNS_9allocatorImEEE13__vdeallocateEv, symObjAddr: 0x25D0, symBinAddr: 0x100004CF0, symSize: 0x80 }
  - { offsetInCU: 0x14CE7, offset: 0x14CE7, size: 0x8, addend: 0x0, symName: __ZNSt3__16vectorImNS_9allocatorImEEE19__move_assign_allocB7v160006ERS3_, symObjAddr: 0x2650, symBinAddr: 0x100004D70, symSize: 0x30 }
  - { offsetInCU: 0x14D1B, offset: 0x14D1B, size: 0x8, addend: 0x0, symName: __ZNSt3__16vectorImNS_9allocatorImEEE9__end_capB7v160006Ev, symObjAddr: 0x2680, symBinAddr: 0x100004DA0, symSize: 0x20 }
  - { offsetInCU: 0x14D40, offset: 0x14D40, size: 0x8, addend: 0x0, symName: __ZNSt3__16vectorImNS_9allocatorImEEE5clearB7v160006Ev, symObjAddr: 0x26B0, symBinAddr: 0x100004DD0, symSize: 0x50 }
  - { offsetInCU: 0x14D74, offset: 0x14D74, size: 0x8, addend: 0x0, symName: __ZNSt3__116allocator_traitsINS_9allocatorImEEE10deallocateB7v160006ERS2_Pmm, symObjAddr: 0x2700, symBinAddr: 0x100004E20, symSize: 0x30 }
  - { offsetInCU: 0x14DB6, offset: 0x14DB6, size: 0x8, addend: 0x0, symName: __ZNSt3__16vectorImNS_9allocatorImEEE7__allocB7v160006Ev, symObjAddr: 0x2730, symBinAddr: 0x100004E50, symSize: 0x20 }
  - { offsetInCU: 0x14DDB, offset: 0x14DDB, size: 0x8, addend: 0x0, symName: __ZNKSt3__16vectorImNS_9allocatorImEEE8capacityB7v160006Ev, symObjAddr: 0x2750, symBinAddr: 0x100004E70, symSize: 0x30 }
  - { offsetInCU: 0x14E00, offset: 0x14E00, size: 0x8, addend: 0x0, symName: __ZNKSt3__16vectorImNS_9allocatorImEEE4sizeB7v160006Ev, symObjAddr: 0x2780, symBinAddr: 0x100004EA0, symSize: 0x20 }
  - { offsetInCU: 0x14E25, offset: 0x14E25, size: 0x8, addend: 0x0, symName: __ZNSt3__16vectorImNS_9allocatorImEEE7__clearB7v160006Ev, symObjAddr: 0x27A0, symBinAddr: 0x100004EC0, symSize: 0x20 }
  - { offsetInCU: 0x14E4A, offset: 0x14E4A, size: 0x8, addend: 0x0, symName: __ZNKSt3__16vectorImNS_9allocatorImEEE17__annotate_shrinkB7v160006Em, symObjAddr: 0x27C0, symBinAddr: 0x100004EE0, symSize: 0xA0 }
  - { offsetInCU: 0x14E7E, offset: 0x14E7E, size: 0x8, addend: 0x0, symName: __ZNSt3__16vectorImNS_9allocatorImEEE22__base_destruct_at_endB7v160006EPm, symObjAddr: 0x2870, symBinAddr: 0x100004F90, symSize: 0x80 }
  - { offsetInCU: 0x14EC1, offset: 0x14EC1, size: 0x8, addend: 0x0, symName: __ZNSt3__116allocator_traitsINS_9allocatorImEEE7destroyB7v160006ImvEEvRS2_PT_, symObjAddr: 0x28F0, symBinAddr: 0x100005010, symSize: 0x30 }
  - { offsetInCU: 0x14EFE, offset: 0x14EFE, size: 0x8, addend: 0x0, symName: __ZNSt3__19allocatorImE7destroyB7v160006EPm, symObjAddr: 0x2930, symBinAddr: 0x100005050, symSize: 0x10 }
  - { offsetInCU: 0x14F31, offset: 0x14F31, size: 0x8, addend: 0x0, symName: __ZNKSt3__16vectorImNS_9allocatorImEEE31__annotate_contiguous_containerB7v160006EPKvS5_S5_S5_, symObjAddr: 0x2940, symBinAddr: 0x100005060, symSize: 0x20 }
  - { offsetInCU: 0x14F82, offset: 0x14F82, size: 0x8, addend: 0x0, symName: __ZNKSt3__16vectorImNS_9allocatorImEEE4dataB7v160006Ev, symObjAddr: 0x2960, symBinAddr: 0x100005080, symSize: 0x20 }
  - { offsetInCU: 0x14FA7, offset: 0x14FA7, size: 0x8, addend: 0x0, symName: __ZNSt3__19allocatorImE10deallocateB7v160006EPmm, symObjAddr: 0x2980, symBinAddr: 0x1000050A0, symSize: 0x40 }
  - { offsetInCU: 0x14FE8, offset: 0x14FE8, size: 0x8, addend: 0x0, symName: __ZNSt3__117__compressed_pairIPmNS_9allocatorImEEE6secondB7v160006Ev, symObjAddr: 0x29C0, symBinAddr: 0x1000050E0, symSize: 0x20 }
  - { offsetInCU: 0x1500D, offset: 0x1500D, size: 0x8, addend: 0x0, symName: __ZNSt3__122__compressed_pair_elemINS_9allocatorImEELi1ELb1EE5__getB7v160006Ev, symObjAddr: 0x29E0, symBinAddr: 0x100005100, symSize: 0x10 }
  - { offsetInCU: 0x15032, offset: 0x15032, size: 0x8, addend: 0x0, symName: __ZNKSt3__16vectorImNS_9allocatorImEEE9__end_capB7v160006Ev, symObjAddr: 0x29F0, symBinAddr: 0x100005110, symSize: 0x20 }
  - { offsetInCU: 0x15057, offset: 0x15057, size: 0x8, addend: 0x0, symName: __ZNKSt3__117__compressed_pairIPmNS_9allocatorImEEE5firstB7v160006Ev, symObjAddr: 0x2A10, symBinAddr: 0x100005130, symSize: 0x20 }
  - { offsetInCU: 0x1507C, offset: 0x1507C, size: 0x8, addend: 0x0, symName: __ZNKSt3__122__compressed_pair_elemIPmLi0ELb0EE5__getB7v160006Ev, symObjAddr: 0x2A30, symBinAddr: 0x100005150, symSize: 0x10 }
  - { offsetInCU: 0x150A1, offset: 0x150A1, size: 0x8, addend: 0x0, symName: __ZNSt3__16vectorImNS_9allocatorImEEE19__move_assign_allocB7v160006ERS3_NS_17integral_constantIbLb1EEE, symObjAddr: 0x2A40, symBinAddr: 0x100005160, symSize: 0x30 }
  - { offsetInCU: 0x150E0, offset: 0x150E0, size: 0x8, addend: 0x0, symName: __ZNSt3__117__compressed_pairIPmNS_9allocatorImEEE5firstB7v160006Ev, symObjAddr: 0x2A70, symBinAddr: 0x100005190, symSize: 0x20 }
  - { offsetInCU: 0x15105, offset: 0x15105, size: 0x8, addend: 0x0, symName: __ZNSt3__122__compressed_pair_elemIPmLi0ELb0EE5__getB7v160006Ev, symObjAddr: 0x2A90, symBinAddr: 0x1000051B0, symSize: 0x10 }
  - { offsetInCU: 0x1512A, offset: 0x1512A, size: 0x8, addend: 0x0, symName: __ZN11DroneFlightD2Ev, symObjAddr: 0x2AA0, symBinAddr: 0x1000051C0, symSize: 0x40 }
  - { offsetInCU: 0x15155, offset: 0x15155, size: 0x8, addend: 0x0, symName: __ZNSt3__16vectorImNS_9allocatorImEEED1B7v160006Ev, symObjAddr: 0x2AE0, symBinAddr: 0x100005200, symSize: 0x20 }
  - { offsetInCU: 0x1517E, offset: 0x1517E, size: 0x8, addend: 0x0, symName: __ZNSt3__16vectorImNS_9allocatorImEEED2B7v160006Ev, symObjAddr: 0x2B00, symBinAddr: 0x100005220, symSize: 0x40 }
  - { offsetInCU: 0x151A7, offset: 0x151A7, size: 0x8, addend: 0x0, symName: __ZNSt3__16vectorImNS_9allocatorImEEE16__destroy_vectorC1ERS3_, symObjAddr: 0x2B40, symBinAddr: 0x100005260, symSize: 0x30 }
  - { offsetInCU: 0x151DF, offset: 0x151DF, size: 0x8, addend: 0x0, symName: __ZNSt3__16vectorImNS_9allocatorImEEE16__destroy_vectorclB7v160006Ev, symObjAddr: 0x2B70, symBinAddr: 0x100005290, symSize: 0x90 }
  - { offsetInCU: 0x15204, offset: 0x15204, size: 0x8, addend: 0x0, symName: __ZNSt3__16vectorImNS_9allocatorImEEE16__destroy_vectorC2ERS3_, symObjAddr: 0x2C00, symBinAddr: 0x100005320, symSize: 0x20 }
  - { offsetInCU: 0x1523C, offset: 0x1523C, size: 0x8, addend: 0x0, symName: __ZNKSt3__16vectorImNS_9allocatorImEEE17__annotate_deleteB7v160006Ev, symObjAddr: 0x2C20, symBinAddr: 0x100005340, symSize: 0xB0 }
  - { offsetInCU: 0x15261, offset: 0x15261, size: 0x8, addend: 0x0, symName: __ZNSt3__123__libcpp_numeric_limitsIdLb1EE8infinityB7v160006Ev, symObjAddr: 0x2CE0, symBinAddr: 0x100005400, symSize: 0x10 }
  - { offsetInCU: 0x15275, offset: 0x15275, size: 0x8, addend: 0x0, symName: __ZNKSt3__111__wrap_iterIP8DropZoneE4baseB7v160006Ev, symObjAddr: 0x2D30, symBinAddr: 0x100005450, symSize: 0x20 }
  - { offsetInCU: 0x1529A, offset: 0x1529A, size: 0x8, addend: 0x0, symName: __ZNKSt3__111__wrap_iterIP11DroneFlightE4baseB7v160006Ev, symObjAddr: 0x2D90, symBinAddr: 0x1000054B0, symSize: 0x20 }
  - { offsetInCU: 0x152BE, offset: 0x152BE, size: 0x8, addend: 0x0, symName: __ZNSt3__16vectorImNS_9allocatorImEEE9push_backB7v160006EOm, symObjAddr: 0x2DB0, symBinAddr: 0x1000054D0, symSize: 0x60 }
  - { offsetInCU: 0x152F4, offset: 0x152F4, size: 0x8, addend: 0x0, symName: __ZN11DroneFlight4distER8DropZoneS1_, symObjAddr: 0x2E10, symBinAddr: 0x100005530, symSize: 0x70 }
  - { offsetInCU: 0x15334, offset: 0x15334, size: 0x8, addend: 0x0, symName: __ZNSt3__16vectorImNS_9allocatorImEEE6insertENS_11__wrap_iterIPKmEERS5_, symObjAddr: 0x2E80, symBinAddr: 0x1000055A0, symSize: 0x200 }
  - { offsetInCU: 0x153C9, offset: 0x153C9, size: 0x8, addend: 0x0, symName: __ZNSt3__16vectorImNS_9allocatorImEEE5beginB7v160006Ev, symObjAddr: 0x3080, symBinAddr: 0x1000057A0, symSize: 0x30 }
  - { offsetInCU: 0x153F0, offset: 0x153F0, size: 0x8, addend: 0x0, symName: __ZNKSt3__111__wrap_iterIPmEplB7v160006El, symObjAddr: 0x30B0, symBinAddr: 0x1000057D0, symSize: 0x40 }
  - { offsetInCU: 0x1543B, offset: 0x1543B, size: 0x8, addend: 0x0, symName: __ZNSt3__111__wrap_iterIPKmEC1B7v160006IPmEERKNS0_IT_EEPNS_9enable_ifIXsr14is_convertibleIS6_S2_EE5valueEvE4typeE, symObjAddr: 0x30F0, symBinAddr: 0x100005810, symSize: 0x30 }
  - { offsetInCU: 0x15484, offset: 0x15484, size: 0x8, addend: 0x0, symName: __ZNSt3__16vectorImNS_9allocatorImEEE8pop_backEv, symObjAddr: 0x3120, symBinAddr: 0x100005840, symSize: 0x30 }
  - { offsetInCU: 0x154AA, offset: 0x154AA, size: 0x8, addend: 0x0, symName: __ZNSt3__16vectorImNS_9allocatorImEEE3endB7v160006Ev, symObjAddr: 0x3190, symBinAddr: 0x1000058B0, symSize: 0x30 }
  - { offsetInCU: 0x154D0, offset: 0x154D0, size: 0x8, addend: 0x0, symName: __ZNSt3__16vectorImNS_9allocatorImEEEaSB7v160006ERKS3_, symObjAddr: 0x31C0, symBinAddr: 0x1000058E0, symSize: 0x60 }
  - { offsetInCU: 0x15506, offset: 0x15506, size: 0x8, addend: 0x0, symName: __ZNSt3__16vectorImNS_9allocatorImEEE22__construct_one_at_endB7v160006IJmEEEvDpOT_, symObjAddr: 0x3220, symBinAddr: 0x100005940, symSize: 0x90 }
  - { offsetInCU: 0x15553, offset: 0x15553, size: 0x8, addend: 0x0, symName: __ZNSt3__16vectorImNS_9allocatorImEEE21__push_back_slow_pathImEEvOT_, symObjAddr: 0x32B0, symBinAddr: 0x1000059D0, symSize: 0xD0 }
  - { offsetInCU: 0x155C9, offset: 0x155C9, size: 0x8, addend: 0x0, symName: __ZNSt3__16vectorImNS_9allocatorImEEE21_ConstructTransactionC1B7v160006ERS3_m, symObjAddr: 0x3380, symBinAddr: 0x100005AA0, symSize: 0x30 }
  - { offsetInCU: 0x15610, offset: 0x15610, size: 0x8, addend: 0x0, symName: __ZNSt3__116allocator_traitsINS_9allocatorImEEE9constructB7v160006ImJmEvEEvRS2_PT_DpOT0_, symObjAddr: 0x33B0, symBinAddr: 0x100005AD0, symSize: 0x30 }
  - { offsetInCU: 0x15667, offset: 0x15667, size: 0x8, addend: 0x0, symName: __ZNSt3__16vectorImNS_9allocatorImEEE21_ConstructTransactionD1B7v160006Ev, symObjAddr: 0x33E0, symBinAddr: 0x100005B00, symSize: 0x20 }
  - { offsetInCU: 0x15690, offset: 0x15690, size: 0x8, addend: 0x0, symName: __ZNSt3__16vectorImNS_9allocatorImEEE21_ConstructTransactionC2B7v160006ERS3_m, symObjAddr: 0x3400, symBinAddr: 0x100005B20, symSize: 0x40 }
  - { offsetInCU: 0x156D7, offset: 0x156D7, size: 0x8, addend: 0x0, symName: __ZNSt3__19allocatorImE9constructB7v160006ImJmEEEvPT_DpOT0_, symObjAddr: 0x3440, symBinAddr: 0x100005B60, symSize: 0x20 }
  - { offsetInCU: 0x1572C, offset: 0x1572C, size: 0x8, addend: 0x0, symName: __ZNSt3__16vectorImNS_9allocatorImEEE21_ConstructTransactionD2B7v160006Ev, symObjAddr: 0x3460, symBinAddr: 0x100005B80, symSize: 0x20 }
  - { offsetInCU: 0x15754, offset: 0x15754, size: 0x8, addend: 0x0, symName: __ZNKSt3__16vectorImNS_9allocatorImEEE11__recommendB7v160006Em, symObjAddr: 0x3480, symBinAddr: 0x100005BA0, symSize: 0xA0 }
  - { offsetInCU: 0x157A8, offset: 0x157A8, size: 0x8, addend: 0x0, symName: __ZNSt3__114__split_bufferImRNS_9allocatorImEEEC1EmmS3_, symObjAddr: 0x3520, symBinAddr: 0x100005C40, symSize: 0x40 }
  - { offsetInCU: 0x157FD, offset: 0x157FD, size: 0x8, addend: 0x0, symName: __ZNSt3__114__split_bufferImRNS_9allocatorImEEED1Ev, symObjAddr: 0x3690, symBinAddr: 0x100005DB0, symSize: 0x20 }
  - { offsetInCU: 0x15827, offset: 0x15827, size: 0x8, addend: 0x0, symName: __ZNKSt3__16vectorImNS_9allocatorImEEE8max_sizeEv, symObjAddr: 0x36B0, symBinAddr: 0x100005DD0, symSize: 0x60 }
  - { offsetInCU: 0x1584E, offset: 0x1584E, size: 0x8, addend: 0x0, symName: __ZNKSt3__16vectorImNS_9allocatorImEEE20__throw_length_errorB7v160006Ev, symObjAddr: 0x3710, symBinAddr: 0x100005E30, symSize: 0x20 }
  - { offsetInCU: 0x1587D, offset: 0x1587D, size: 0x8, addend: 0x0, symName: __ZNSt3__116allocator_traitsINS_9allocatorImEEE8max_sizeB7v160006IS2_vEEmRKS2_, symObjAddr: 0x3790, symBinAddr: 0x100005EB0, symSize: 0x20 }
  - { offsetInCU: 0x158AB, offset: 0x158AB, size: 0x8, addend: 0x0, symName: __ZNKSt3__16vectorImNS_9allocatorImEEE7__allocB7v160006Ev, symObjAddr: 0x37B0, symBinAddr: 0x100005ED0, symSize: 0x20 }
  - { offsetInCU: 0x158D0, offset: 0x158D0, size: 0x8, addend: 0x0, symName: __ZNSt3__114numeric_limitsIlE3maxB7v160006Ev, symObjAddr: 0x37D0, symBinAddr: 0x100005EF0, symSize: 0x10 }
  - { offsetInCU: 0x158EE, offset: 0x158EE, size: 0x8, addend: 0x0, symName: __ZNKSt3__16__lessImmEclB7v160006ERKmS3_, symObjAddr: 0x3830, symBinAddr: 0x100005F50, symSize: 0x30 }
  - { offsetInCU: 0x1592F, offset: 0x1592F, size: 0x8, addend: 0x0, symName: __ZNKSt3__19allocatorImE8max_sizeB7v160006Ev, symObjAddr: 0x3860, symBinAddr: 0x100005F80, symSize: 0x20 }
  - { offsetInCU: 0x15954, offset: 0x15954, size: 0x8, addend: 0x0, symName: __ZNKSt3__117__compressed_pairIPmNS_9allocatorImEEE6secondB7v160006Ev, symObjAddr: 0x3880, symBinAddr: 0x100005FA0, symSize: 0x20 }
  - { offsetInCU: 0x15979, offset: 0x15979, size: 0x8, addend: 0x0, symName: __ZNKSt3__122__compressed_pair_elemINS_9allocatorImEELi1ELb1EE5__getB7v160006Ev, symObjAddr: 0x38A0, symBinAddr: 0x100005FC0, symSize: 0x10 }
  - { offsetInCU: 0x1599E, offset: 0x1599E, size: 0x8, addend: 0x0, symName: __ZNSt3__123__libcpp_numeric_limitsIlLb1EE3maxB7v160006Ev, symObjAddr: 0x38B0, symBinAddr: 0x100005FD0, symSize: 0x10 }
  - { offsetInCU: 0x159B2, offset: 0x159B2, size: 0x8, addend: 0x0, symName: __ZNSt12length_errorC1B7v160006EPKc, symObjAddr: 0x3930, symBinAddr: 0x100006050, symSize: 0x30 }
  - { offsetInCU: 0x159E9, offset: 0x159E9, size: 0x8, addend: 0x0, symName: __ZNSt12length_errorC2B7v160006EPKc, symObjAddr: 0x3960, symBinAddr: 0x100006080, symSize: 0x40 }
  - { offsetInCU: 0x15A20, offset: 0x15A20, size: 0x8, addend: 0x0, symName: __ZNSt3__114__split_bufferImRNS_9allocatorImEEEC2EmmS3_, symObjAddr: 0x39F0, symBinAddr: 0x100006110, symSize: 0xD0 }
  - { offsetInCU: 0x15A92, offset: 0x15A92, size: 0x8, addend: 0x0, symName: __ZNSt3__117__compressed_pairIPmRNS_9allocatorImEEEC1B7v160006IDnS4_EEOT_OT0_, symObjAddr: 0x3AC0, symBinAddr: 0x1000061E0, symSize: 0x30 }
  - { offsetInCU: 0x15AE9, offset: 0x15AE9, size: 0x8, addend: 0x0, symName: __ZNSt3__114__split_bufferImRNS_9allocatorImEEE7__allocB7v160006Ev, symObjAddr: 0x3B30, symBinAddr: 0x100006250, symSize: 0x20 }
  - { offsetInCU: 0x15B0E, offset: 0x15B0E, size: 0x8, addend: 0x0, symName: __ZNSt3__114__split_bufferImRNS_9allocatorImEEE9__end_capB7v160006Ev, symObjAddr: 0x3B50, symBinAddr: 0x100006270, symSize: 0x20 }
  - { offsetInCU: 0x15B33, offset: 0x15B33, size: 0x8, addend: 0x0, symName: __ZNSt3__117__compressed_pairIPmRNS_9allocatorImEEEC2B7v160006IDnS4_EEOT_OT0_, symObjAddr: 0x3B70, symBinAddr: 0x100006290, symSize: 0x40 }
  - { offsetInCU: 0x15B8A, offset: 0x15B8A, size: 0x8, addend: 0x0, symName: __ZNSt3__122__compressed_pair_elemIRNS_9allocatorImEELi1ELb0EEC2B7v160006IS3_vEEOT_, symObjAddr: 0x3BB0, symBinAddr: 0x1000062D0, symSize: 0x20 }
  - { offsetInCU: 0x15BCB, offset: 0x15BCB, size: 0x8, addend: 0x0, symName: __ZNSt3__19allocatorImE8allocateB7v160006Em, symObjAddr: 0x3BD0, symBinAddr: 0x1000062F0, symSize: 0x50 }
  - { offsetInCU: 0x15BFE, offset: 0x15BFE, size: 0x8, addend: 0x0, symName: __ZNSt3__117__compressed_pairIPmRNS_9allocatorImEEE6secondB7v160006Ev, symObjAddr: 0x3D10, symBinAddr: 0x100006430, symSize: 0x20 }
  - { offsetInCU: 0x15C23, offset: 0x15C23, size: 0x8, addend: 0x0, symName: __ZNSt3__122__compressed_pair_elemIRNS_9allocatorImEELi1ELb0EE5__getB7v160006Ev, symObjAddr: 0x3D30, symBinAddr: 0x100006450, symSize: 0x20 }
  - { offsetInCU: 0x15C48, offset: 0x15C48, size: 0x8, addend: 0x0, symName: __ZNSt3__117__compressed_pairIPmRNS_9allocatorImEEE5firstB7v160006Ev, symObjAddr: 0x3D50, symBinAddr: 0x100006470, symSize: 0x20 }
  - { offsetInCU: 0x15C6D, offset: 0x15C6D, size: 0x8, addend: 0x0, symName: __ZNSt3__116reverse_iteratorIPmEC1B7v160006ES1_, symObjAddr: 0x3DE0, symBinAddr: 0x100006500, symSize: 0x30 }
  - { offsetInCU: 0x15CA4, offset: 0x15CA4, size: 0x8, addend: 0x0, symName: __ZNKSt3__116reverse_iteratorIPmE4baseB7v160006Ev, symObjAddr: 0x3E10, symBinAddr: 0x100006530, symSize: 0x20 }
  - { offsetInCU: 0x15CC9, offset: 0x15CC9, size: 0x8, addend: 0x0, symName: __ZNKSt3__16vectorImNS_9allocatorImEEE14__annotate_newB7v160006Em, symObjAddr: 0x3E70, symBinAddr: 0x100006590, symSize: 0xB0 }
  - { offsetInCU: 0x15D20, offset: 0x15D20, size: 0x8, addend: 0x0, symName: __ZNKSt3__111__move_loopINS_17_ClassicAlgPolicyEEclB7v160006INS_16reverse_iteratorIPmEES6_S6_EENS_4pairIT_T1_EES8_T0_S9_, symObjAddr: 0x4360, symBinAddr: 0x100006A80, symSize: 0xA0 }
  - { offsetInCU: 0x15D8A, offset: 0x15D8A, size: 0x8, addend: 0x0, symName: __ZNSt3__18_IterOpsINS_17_ClassicAlgPolicyEE11__iter_moveB7v160006IRNS_16reverse_iteratorIPmEEEENS_9enable_ifIXsr12is_referenceIDTdeclsr3stdE7declvalIRT_EEEEE5valueEDTclsr3stdE4movedeclsr3stdE7declvalISA_EEEEE4typeEOS9_, symObjAddr: 0x4580, symBinAddr: 0x100006CA0, symSize: 0x20 }
  - { offsetInCU: 0x15DB6, offset: 0x15DB6, size: 0x8, addend: 0x0, symName: __ZNKSt3__116reverse_iteratorIPmEdeB7v160006Ev, symObjAddr: 0x45A0, symBinAddr: 0x100006CC0, symSize: 0x30 }
  - { offsetInCU: 0x15DE9, offset: 0x15DE9, size: 0x8, addend: 0x0, symName: __ZNSt3__116reverse_iteratorIPmEppB7v160006Ev, symObjAddr: 0x45D0, symBinAddr: 0x100006CF0, symSize: 0x20 }
  - { offsetInCU: 0x15E0E, offset: 0x15E0E, size: 0x8, addend: 0x0, symName: __ZNSt3__18_IterOpsINS_17_ClassicAlgPolicyEE25__validate_iter_referenceB7v160006IRNS_16reverse_iteratorIPmEEEEvv, symObjAddr: 0x45F0, symBinAddr: 0x100006D10, symSize: 0x10 }
  - { offsetInCU: 0x15E2C, offset: 0x15E2C, size: 0x8, addend: 0x0, symName: __ZNSt3__118__unwrap_iter_implINS_16reverse_iteratorIPmEELb0EE8__unwrapB7v160006ES3_, symObjAddr: 0x4600, symBinAddr: 0x100006D20, symSize: 0x20 }
  - { offsetInCU: 0x15E54, offset: 0x15E54, size: 0x8, addend: 0x0, symName: __ZNSt3__14pairINS_16reverse_iteratorIPmEES3_EC1B7v160006IS3_S3_LPv0EEEOT_OT0_, symObjAddr: 0x4620, symBinAddr: 0x100006D40, symSize: 0x30 }
  - { offsetInCU: 0x15EB1, offset: 0x15EB1, size: 0x8, addend: 0x0, symName: __ZNSt3__14pairINS_16reverse_iteratorIPmEES3_EC2B7v160006IS3_S3_LPv0EEEOT_OT0_, symObjAddr: 0x4650, symBinAddr: 0x100006D70, symSize: 0x40 }
  - { offsetInCU: 0x15F0E, offset: 0x15F0E, size: 0x8, addend: 0x0, symName: __ZNSt3__118__unwrap_iter_implINS_16reverse_iteratorIPmEELb0EE8__rewrapB7v160006ES3_S3_, symObjAddr: 0x4690, symBinAddr: 0x100006DB0, symSize: 0x30 }
  - { offsetInCU: 0x15F3B, offset: 0x15F3B, size: 0x8, addend: 0x0, symName: __ZNSt3__116reverse_iteratorIPmEC2B7v160006ES1_, symObjAddr: 0x46C0, symBinAddr: 0x100006DE0, symSize: 0x30 }
  - { offsetInCU: 0x15F72, offset: 0x15F72, size: 0x8, addend: 0x0, symName: __ZNSt3__114__split_bufferImRNS_9allocatorImEEED2Ev, symObjAddr: 0x46F0, symBinAddr: 0x100006E10, symSize: 0x70 }
  - { offsetInCU: 0x15F9D, offset: 0x15F9D, size: 0x8, addend: 0x0, symName: __ZNSt3__114__split_bufferImRNS_9allocatorImEEE5clearB7v160006Ev, symObjAddr: 0x4760, symBinAddr: 0x100006E80, symSize: 0x20 }
  - { offsetInCU: 0x15FC2, offset: 0x15FC2, size: 0x8, addend: 0x0, symName: __ZNKSt3__114__split_bufferImRNS_9allocatorImEEE8capacityB7v160006Ev, symObjAddr: 0x4780, symBinAddr: 0x100006EA0, symSize: 0x30 }
  - { offsetInCU: 0x15FE7, offset: 0x15FE7, size: 0x8, addend: 0x0, symName: __ZNSt3__114__split_bufferImRNS_9allocatorImEEE17__destruct_at_endB7v160006EPm, symObjAddr: 0x47B0, symBinAddr: 0x100006ED0, symSize: 0x30 }
  - { offsetInCU: 0x16019, offset: 0x16019, size: 0x8, addend: 0x0, symName: __ZNSt3__114__split_bufferImRNS_9allocatorImEEE17__destruct_at_endB7v160006EPmNS_17integral_constantIbLb0EEE, symObjAddr: 0x47E0, symBinAddr: 0x100006F00, symSize: 0x80 }
  - { offsetInCU: 0x16058, offset: 0x16058, size: 0x8, addend: 0x0, symName: __ZNKSt3__114__split_bufferImRNS_9allocatorImEEE9__end_capB7v160006Ev, symObjAddr: 0x4860, symBinAddr: 0x100006F80, symSize: 0x20 }
  - { offsetInCU: 0x1607D, offset: 0x1607D, size: 0x8, addend: 0x0, symName: __ZNKSt3__117__compressed_pairIPmRNS_9allocatorImEEE5firstB7v160006Ev, symObjAddr: 0x4880, symBinAddr: 0x100006FA0, symSize: 0x20 }
  - { offsetInCU: 0x160A2, offset: 0x160A2, size: 0x8, addend: 0x0, symName: __ZNSt3__16vectorImNS_9allocatorImEEE22__construct_one_at_endB7v160006IJRKmEEEvDpOT_, symObjAddr: 0x48E0, symBinAddr: 0x100007000, symSize: 0x90 }
  - { offsetInCU: 0x160EF, offset: 0x160EF, size: 0x8, addend: 0x0, symName: __ZNSt3__16vectorImNS_9allocatorImEEE12__move_rangeEPmS4_S4_, symObjAddr: 0x4970, symBinAddr: 0x100007090, symSize: 0x130 }
  - { offsetInCU: 0x161AC, offset: 0x161AC, size: 0x8, addend: 0x0, symName: __ZNSt3__114pointer_traitsIPKmE10pointer_toB7v160006ERS1_, symObjAddr: 0x4AA0, symBinAddr: 0x1000071C0, symSize: 0x10 }
  - { offsetInCU: 0x161CE, offset: 0x161CE, size: 0x8, addend: 0x0, symName: __ZNSt3__114__split_bufferImRNS_9allocatorImEEE9push_backB7v160006ERKm, symObjAddr: 0x4AB0, symBinAddr: 0x1000071D0, symSize: 0x290 }
  - { offsetInCU: 0x16245, offset: 0x16245, size: 0x8, addend: 0x0, symName: __ZNSt3__16vectorImNS_9allocatorImEEE11__make_iterB7v160006EPm, symObjAddr: 0x4EB0, symBinAddr: 0x1000075D0, symSize: 0x30 }
  - { offsetInCU: 0x16279, offset: 0x16279, size: 0x8, addend: 0x0, symName: __ZNKSt3__111__wrap_iterIPKmE4baseB7v160006Ev, symObjAddr: 0x4EE0, symBinAddr: 0x100007600, symSize: 0x20 }
  - { offsetInCU: 0x1629E, offset: 0x1629E, size: 0x8, addend: 0x0, symName: __ZNKSt3__111__wrap_iterIPmE4baseB7v160006Ev, symObjAddr: 0x4F00, symBinAddr: 0x100007620, symSize: 0x20 }
  - { offsetInCU: 0x162C3, offset: 0x162C3, size: 0x8, addend: 0x0, symName: __ZNSt3__116allocator_traitsINS_9allocatorImEEE9constructB7v160006ImJRKmEvEEvRS2_PT_DpOT0_, symObjAddr: 0x4F20, symBinAddr: 0x100007640, symSize: 0x30 }
  - { offsetInCU: 0x1631A, offset: 0x1631A, size: 0x8, addend: 0x0, symName: __ZNSt3__19allocatorImE9constructB7v160006ImJRKmEEEvPT_DpOT0_, symObjAddr: 0x4F50, symBinAddr: 0x100007670, symSize: 0x20 }
  - { offsetInCU: 0x16392, offset: 0x16392, size: 0x8, addend: 0x0, symName: __ZNKSt3__123__move_backward_trivialclB7v160006ImmLi0EEENS_4pairIPT_PT0_EES4_S4_S6_, symObjAddr: 0x5130, symBinAddr: 0x100007850, symSize: 0x40 }
  - { offsetInCU: 0x163F9, offset: 0x163F9, size: 0x8, addend: 0x0, symName: __ZNSt3__14pairIPmS1_EC1B7v160006IRS1_S4_LPv0EEEOT_OT0_, symObjAddr: 0x52E0, symBinAddr: 0x100007A00, symSize: 0x30 }
  - { offsetInCU: 0x16456, offset: 0x16456, size: 0x8, addend: 0x0, symName: __ZNSt3__14pairIPmS1_EC2B7v160006IRS1_S4_LPv0EEEOT_OT0_, symObjAddr: 0x5310, symBinAddr: 0x100007A30, symSize: 0x30 }
  - { offsetInCU: 0x164B3, offset: 0x164B3, size: 0x8, addend: 0x0, symName: __ZNSt3__118__unwrap_iter_implIPmLb1EE8__unwrapB7v160006ES1_, symObjAddr: 0x5340, symBinAddr: 0x100007A60, symSize: 0x20 }
  - { offsetInCU: 0x164DB, offset: 0x164DB, size: 0x8, addend: 0x0, symName: __ZNSt3__14pairIPmS1_EC1B7v160006IS1_S1_LPv0EEEOT_OT0_, symObjAddr: 0x5360, symBinAddr: 0x100007A80, symSize: 0x30 }
  - { offsetInCU: 0x16538, offset: 0x16538, size: 0x8, addend: 0x0, symName: __ZNSt3__14pairIPmS1_EC2B7v160006IS1_S1_LPv0EEEOT_OT0_, symObjAddr: 0x5390, symBinAddr: 0x100007AB0, symSize: 0x30 }
  - { offsetInCU: 0x16595, offset: 0x16595, size: 0x8, addend: 0x0, symName: __ZNSt3__118__unwrap_iter_implIPmLb1EE8__rewrapB7v160006ES1_S1_, symObjAddr: 0x53C0, symBinAddr: 0x100007AE0, symSize: 0x50 }
  - { offsetInCU: 0x165C5, offset: 0x165C5, size: 0x8, addend: 0x0, symName: __ZNSt3__114__split_bufferImRNS_9allocatorImEEE18__construct_at_endINS_13move_iteratorIPmEEEENS_9enable_ifIXsr27__is_cpp17_forward_iteratorIT_EE5valueEvE4typeESA_SA_, symObjAddr: 0x5450, symBinAddr: 0x100007B70, symSize: 0x100 }
  - { offsetInCU: 0x16620, offset: 0x16620, size: 0x8, addend: 0x0, symName: __ZNSt3__113move_iteratorIPmEC1B7v160006ES1_, symObjAddr: 0x5550, symBinAddr: 0x100007C70, symSize: 0x30 }
  - { offsetInCU: 0x16661, offset: 0x16661, size: 0x8, addend: 0x0, symName: __ZNKSt3__114__move_trivialclB7v160006ImmLi0EEENS_4pairIPT_PT0_EES4_S4_S6_, symObjAddr: 0x56B0, symBinAddr: 0x100007DD0, symSize: 0x40 }
  - { offsetInCU: 0x166C8, offset: 0x166C8, size: 0x8, addend: 0x0, symName: __ZNSt3__14pairIPmS1_EC1B7v160006IRS1_S1_LPv0EEEOT_OT0_, symObjAddr: 0x5790, symBinAddr: 0x100007EB0, symSize: 0x30 }
  - { offsetInCU: 0x16725, offset: 0x16725, size: 0x8, addend: 0x0, symName: __ZNSt3__14pairIPmS1_EC2B7v160006IRS1_S1_LPv0EEEOT_OT0_, symObjAddr: 0x57C0, symBinAddr: 0x100007EE0, symSize: 0x30 }
  - { offsetInCU: 0x1678C, offset: 0x1678C, size: 0x8, addend: 0x0, symName: __ZNSt3__114__split_bufferImRNS_9allocatorImEEE21_ConstructTransactionC1B7v160006EPPmm, symObjAddr: 0x5830, symBinAddr: 0x100007F50, symSize: 0x30 }
  - { offsetInCU: 0x167D1, offset: 0x167D1, size: 0x8, addend: 0x0, symName: __ZNKSt3__113move_iteratorIPmEdeB7v160006Ev, symObjAddr: 0x5860, symBinAddr: 0x100007F80, symSize: 0x20 }
  - { offsetInCU: 0x167F6, offset: 0x167F6, size: 0x8, addend: 0x0, symName: __ZNSt3__113move_iteratorIPmEppB7v160006Ev, symObjAddr: 0x5880, symBinAddr: 0x100007FA0, symSize: 0x20 }
  - { offsetInCU: 0x1681B, offset: 0x1681B, size: 0x8, addend: 0x0, symName: __ZNSt3__114__split_bufferImRNS_9allocatorImEEE21_ConstructTransactionD1B7v160006Ev, symObjAddr: 0x58A0, symBinAddr: 0x100007FC0, symSize: 0x20 }
  - { offsetInCU: 0x16844, offset: 0x16844, size: 0x8, addend: 0x0, symName: __ZNKSt3__113move_iteratorIPmE4baseB7v160006Ev, symObjAddr: 0x5930, symBinAddr: 0x100008050, symSize: 0x20 }
  - { offsetInCU: 0x16869, offset: 0x16869, size: 0x8, addend: 0x0, symName: __ZNSt3__114__split_bufferImRNS_9allocatorImEEE21_ConstructTransactionC2B7v160006EPPmm, symObjAddr: 0x5950, symBinAddr: 0x100008070, symSize: 0x40 }
  - { offsetInCU: 0x168AE, offset: 0x168AE, size: 0x8, addend: 0x0, symName: __ZNSt3__114__split_bufferImRNS_9allocatorImEEE21_ConstructTransactionD2B7v160006Ev, symObjAddr: 0x5990, symBinAddr: 0x1000080B0, symSize: 0x20 }
  - { offsetInCU: 0x168D7, offset: 0x168D7, size: 0x8, addend: 0x0, symName: __ZNSt3__113move_iteratorIPmEC2B7v160006ES1_, symObjAddr: 0x59B0, symBinAddr: 0x1000080D0, symSize: 0x20 }
  - { offsetInCU: 0x1690E, offset: 0x1690E, size: 0x8, addend: 0x0, symName: __ZNSt3__111__wrap_iterIPmEC1B7v160006EPKvS1_, symObjAddr: 0x5A00, symBinAddr: 0x100008120, symSize: 0x30 }
  - { offsetInCU: 0x16953, offset: 0x16953, size: 0x8, addend: 0x0, symName: __ZNSt3__111__wrap_iterIPmEC2B7v160006EPKvS1_, symObjAddr: 0x5A30, symBinAddr: 0x100008150, symSize: 0x20 }
  - { offsetInCU: 0x16998, offset: 0x16998, size: 0x8, addend: 0x0, symName: __ZNSt3__111__wrap_iterIPmEpLB7v160006El, symObjAddr: 0x5A50, symBinAddr: 0x100008170, symSize: 0x20 }
  - { offsetInCU: 0x169CB, offset: 0x169CB, size: 0x8, addend: 0x0, symName: __ZNSt3__111__wrap_iterIPKmEC2B7v160006IPmEERKNS0_IT_EEPNS_9enable_ifIXsr14is_convertibleIS6_S2_EE5valueEvE4typeE, symObjAddr: 0x5A70, symBinAddr: 0x100008190, symSize: 0x40 }
  - { offsetInCU: 0x16A15, offset: 0x16A15, size: 0x8, addend: 0x0, symName: __ZNSt3__16vectorImNS_9allocatorImEEE17__destruct_at_endB7v160006EPm, symObjAddr: 0x5AB0, symBinAddr: 0x1000081D0, symSize: 0x60 }
  - { offsetInCU: 0x16A57, offset: 0x16A57, size: 0x8, addend: 0x0, symName: __ZNSt3__16vectorImNS_9allocatorImEEE27__invalidate_iterators_pastB7v160006EPm, symObjAddr: 0x5B10, symBinAddr: 0x100008230, symSize: 0x10 }
  - { offsetInCU: 0x16A8D, offset: 0x16A8D, size: 0x8, addend: 0x0, symName: __ZNSt3__111__wrap_iterIPmEmmB7v160006Ev, symObjAddr: 0x5C50, symBinAddr: 0x100008370, symSize: 0x20 }
  - { offsetInCU: 0x16AB2, offset: 0x16AB2, size: 0x8, addend: 0x0, symName: __ZNSt3__18_IterOpsINS_17_ClassicAlgPolicyEE9iter_swapB7v160006IRNS_11__wrap_iterIPmEES7_EEvOT_OT0_, symObjAddr: 0x5C70, symBinAddr: 0x100008390, symSize: 0x40 }
  - { offsetInCU: 0x16AF5, offset: 0x16AF5, size: 0x8, addend: 0x0, symName: __ZNSt3__111__wrap_iterIPmEppB7v160006Ev, symObjAddr: 0x5CB0, symBinAddr: 0x1000083D0, symSize: 0x20 }
  - { offsetInCU: 0x16B1A, offset: 0x16B1A, size: 0x8, addend: 0x0, symName: __ZNKSt3__111__wrap_iterIPmEdeB7v160006Ev, symObjAddr: 0x5D90, symBinAddr: 0x1000084B0, symSize: 0x20 }
  - { offsetInCU: 0x16B3F, offset: 0x16B3F, size: 0x8, addend: 0x0, symName: __ZNSt3__16vectorImNS_9allocatorImEEE19__copy_assign_allocB7v160006ERKS3_, symObjAddr: 0x5DB0, symBinAddr: 0x1000084D0, symSize: 0x30 }
  - { offsetInCU: 0x16B72, offset: 0x16B72, size: 0x8, addend: 0x0, symName: __ZNSt3__16vectorImNS_9allocatorImEEE6assignIPmLi0EEEvT_S6_, symObjAddr: 0x5DE0, symBinAddr: 0x100008500, symSize: 0x160 }
  - { offsetInCU: 0x16C10, offset: 0x16C10, size: 0x8, addend: 0x0, symName: __ZNSt3__16vectorImNS_9allocatorImEEE19__copy_assign_allocB7v160006ERKS3_NS_17integral_constantIbLb0EEE, symObjAddr: 0x5F40, symBinAddr: 0x100008660, symSize: 0x10 }
  - { offsetInCU: 0x16C4A, offset: 0x16C4A, size: 0x8, addend: 0x0, symName: __ZNSt3__16vectorImNS_9allocatorImEEE18__construct_at_endIPmLi0EEEvT_S6_m, symObjAddr: 0x6010, symBinAddr: 0x100008730, symSize: 0x90 }
  - { offsetInCU: 0x16CBC, offset: 0x16CBC, size: 0x8, addend: 0x0, symName: __ZNSt3__16vectorImNS_9allocatorImEEE11__vallocateB7v160006Em, symObjAddr: 0x60A0, symBinAddr: 0x1000087C0, symSize: 0xA0 }
  - { offsetInCU: 0x16D09, offset: 0x16D09, size: 0x8, addend: 0x0, symName: __ZNKSt3__114__copy_trivialclB7v160006ImmLi0EEENS_4pairIPT_PT0_EES4_S4_S6_, symObjAddr: 0x62C0, symBinAddr: 0x1000089E0, symSize: 0x40 }
  - { offsetInCU: 0x16D70, offset: 0x16D70, size: 0x8, addend: 0x0, symName: __ZNSt3__129_AllocatorDestroyRangeReverseINS_9allocatorImEEPmEC1B7v160006ERS2_RS3_S6_, symObjAddr: 0x6460, symBinAddr: 0x100008B80, symSize: 0x40 }
  - { offsetInCU: 0x16DC6, offset: 0x16DC6, size: 0x8, addend: 0x0, symName: __ZNSt3__116allocator_traitsINS_9allocatorImEEE9constructB7v160006ImJRmEvEEvRS2_PT_DpOT0_, symObjAddr: 0x64A0, symBinAddr: 0x100008BC0, symSize: 0x30 }
  - { offsetInCU: 0x16E1D, offset: 0x16E1D, size: 0x8, addend: 0x0, symName: __ZNSt3__128__exception_guard_exceptionsINS_29_AllocatorDestroyRangeReverseINS_9allocatorImEEPmEEE10__completeB7v160006Ev, symObjAddr: 0x64D0, symBinAddr: 0x100008BF0, symSize: 0x20 }
  - { offsetInCU: 0x16E42, offset: 0x16E42, size: 0x8, addend: 0x0, symName: __ZNSt3__128__exception_guard_exceptionsINS_29_AllocatorDestroyRangeReverseINS_9allocatorImEEPmEEED1B7v160006Ev, symObjAddr: 0x64F0, symBinAddr: 0x100008C10, symSize: 0x20 }
  - { offsetInCU: 0x16E6B, offset: 0x16E6B, size: 0x8, addend: 0x0, symName: __ZNSt3__128__exception_guard_exceptionsINS_29_AllocatorDestroyRangeReverseINS_9allocatorImEEPmEEEC1B7v160006ES5_, symObjAddr: 0x6510, symBinAddr: 0x100008C30, symSize: 0x40 }
  - { offsetInCU: 0x16EA2, offset: 0x16EA2, size: 0x8, addend: 0x0, symName: __ZNSt3__128__exception_guard_exceptionsINS_29_AllocatorDestroyRangeReverseINS_9allocatorImEEPmEEEC2B7v160006ES5_, symObjAddr: 0x6550, symBinAddr: 0x100008C70, symSize: 0x30 }
  - { offsetInCU: 0x16ED9, offset: 0x16ED9, size: 0x8, addend: 0x0, symName: __ZNSt3__129_AllocatorDestroyRangeReverseINS_9allocatorImEEPmEC2B7v160006ERS2_RS3_S6_, symObjAddr: 0x6580, symBinAddr: 0x100008CA0, symSize: 0x40 }
  - { offsetInCU: 0x16F2F, offset: 0x16F2F, size: 0x8, addend: 0x0, symName: __ZNSt3__19allocatorImE9constructB7v160006ImJRmEEEvPT_DpOT0_, symObjAddr: 0x65C0, symBinAddr: 0x100008CE0, symSize: 0x20 }
  - { offsetInCU: 0x16F84, offset: 0x16F84, size: 0x8, addend: 0x0, symName: __ZNSt3__128__exception_guard_exceptionsINS_29_AllocatorDestroyRangeReverseINS_9allocatorImEEPmEEED2B7v160006Ev, symObjAddr: 0x65E0, symBinAddr: 0x100008D00, symSize: 0x40 }
  - { offsetInCU: 0x16FAD, offset: 0x16FAD, size: 0x8, addend: 0x0, symName: __ZNKSt3__129_AllocatorDestroyRangeReverseINS_9allocatorImEEPmEclB7v160006Ev, symObjAddr: 0x6620, symBinAddr: 0x100008D40, symSize: 0x60 }
  - { offsetInCU: 0x16FD7, offset: 0x16FD7, size: 0x8, addend: 0x0, symName: __ZNSt3__119__to_address_helperINS_16reverse_iteratorIPmEEvE6__callB7v160006ERKS3_, symObjAddr: 0x6710, symBinAddr: 0x100008E30, symSize: 0x40 }
  - { offsetInCU: 0x16FFA, offset: 0x16FFA, size: 0x8, addend: 0x0, symName: __ZNKSt3__116reverse_iteratorIPmEptB7v160006Ev, symObjAddr: 0x6750, symBinAddr: 0x100008E70, symSize: 0x20 }
  - { offsetInCU: 0x1701F, offset: 0x1701F, size: 0x8, addend: 0x0, symName: __ZN11DroneFlight9promisingEm, symObjAddr: 0x6770, symBinAddr: 0x100008E90, symSize: 0x1D0 }
  - { offsetInCU: 0x170C3, offset: 0x170C3, size: 0x8, addend: 0x0, symName: __ZN11DroneFlight7findMSTEm, symObjAddr: 0x6940, symBinAddr: 0x100009060, symSize: 0x350 }
  - { offsetInCU: 0x171D9, offset: 0x171D9, size: 0x8, addend: 0x0, symName: __ZN11DroneFlight10distNoSqrtER8DropZoneS1_, symObjAddr: 0x6C90, symBinAddr: 0x1000093B0, symSize: 0x70 }
  - { offsetInCU: 0x1721A, offset: 0x1721A, size: 0x8, addend: 0x0, symName: __ZNSt3__111char_traitsIcE6lengthEPKc, symObjAddr: 0x6EF0, symBinAddr: 0x100009610, symSize: 0x30 }
  - { offsetInCU: 0x1725B, offset: 0x1725B, size: 0x8, addend: 0x0, symName: __ZNKSt3__113basic_ostreamIcNS_11char_traitsIcEEE6sentrycvbB7v160006Ev, symObjAddr: 0x6F20, symBinAddr: 0x100009640, symSize: 0x20 }
  - { offsetInCU: 0x17280, offset: 0x17280, size: 0x8, addend: 0x0, symName: __ZNSt3__119ostreambuf_iteratorIcNS_11char_traitsIcEEEC1B7v160006ERNS_13basic_ostreamIcS2_EE, symObjAddr: 0x7160, symBinAddr: 0x100009880, symSize: 0x30 }
  - { offsetInCU: 0x172B6, offset: 0x172B6, size: 0x8, addend: 0x0, symName: __ZNKSt3__18ios_base5flagsB7v160006Ev, symObjAddr: 0x7190, symBinAddr: 0x1000098B0, symSize: 0x20 }
  - { offsetInCU: 0x172DC, offset: 0x172DC, size: 0x8, addend: 0x0, symName: __ZNKSt3__19basic_iosIcNS_11char_traitsIcEEE4fillB7v160006Ev, symObjAddr: 0x71B0, symBinAddr: 0x1000098D0, symSize: 0x70 }
  - { offsetInCU: 0x17303, offset: 0x17303, size: 0x8, addend: 0x0, symName: __ZNKSt3__119ostreambuf_iteratorIcNS_11char_traitsIcEEE6failedB7v160006Ev, symObjAddr: 0x7220, symBinAddr: 0x100009940, symSize: 0x20 }
  - { offsetInCU: 0x17328, offset: 0x17328, size: 0x8, addend: 0x0, symName: __ZNSt3__19basic_iosIcNS_11char_traitsIcEEE8setstateB7v160006Ej, symObjAddr: 0x7240, symBinAddr: 0x100009960, symSize: 0x30 }
  - { offsetInCU: 0x1735B, offset: 0x1735B, size: 0x8, addend: 0x0, symName: __ZNKSt3__18ios_base5widthB7v160006Ev, symObjAddr: 0x7270, symBinAddr: 0x100009990, symSize: 0x20 }
  - { offsetInCU: 0x17382, offset: 0x17382, size: 0x8, addend: 0x0, symName: __ZNSt3__115basic_streambufIcNS_11char_traitsIcEEE5sputnB7v160006EPKcl, symObjAddr: 0x7290, symBinAddr: 0x1000099B0, symSize: 0x30 }
  - { offsetInCU: 0x173C3, offset: 0x173C3, size: 0x8, addend: 0x0, symName: __ZNSt3__112basic_stringIcNS_11char_traitsIcEENS_9allocatorIcEEEC1B7v160006Emc, symObjAddr: 0x72C0, symBinAddr: 0x1000099E0, symSize: 0x30 }
  - { offsetInCU: 0x1740A, offset: 0x1740A, size: 0x8, addend: 0x0, symName: __ZNSt3__112basic_stringIcNS_11char_traitsIcEENS_9allocatorIcEEE4dataB7v160006Ev, symObjAddr: 0x72F0, symBinAddr: 0x100009A10, symSize: 0x30 }
  - { offsetInCU: 0x1742E, offset: 0x1742E, size: 0x8, addend: 0x0, symName: __ZNSt3__18ios_base5widthB7v160006El, symObjAddr: 0x7320, symBinAddr: 0x100009A40, symSize: 0x30 }
  - { offsetInCU: 0x17473, offset: 0x17473, size: 0x8, addend: 0x0, symName: __ZNSt3__112basic_stringIcNS_11char_traitsIcEENS_9allocatorIcEEEC2B7v160006Emc, symObjAddr: 0x7350, symBinAddr: 0x100009A70, symSize: 0x50 }
  - { offsetInCU: 0x174BA, offset: 0x174BA, size: 0x8, addend: 0x0, symName: __ZNSt3__117__compressed_pairINS_12basic_stringIcNS_11char_traitsIcEENS_9allocatorIcEEE5__repES5_EC1B7v160006INS_18__default_init_tagESA_EEOT_OT0_, symObjAddr: 0x73A0, symBinAddr: 0x100009AC0, symSize: 0x30 }
  - { offsetInCU: 0x17511, offset: 0x17511, size: 0x8, addend: 0x0, symName: __ZNSt3__117__compressed_pairINS_12basic_stringIcNS_11char_traitsIcEENS_9allocatorIcEEE5__repES5_EC2B7v160006INS_18__default_init_tagESA_EEOT_OT0_, symObjAddr: 0x73E0, symBinAddr: 0x100009B00, symSize: 0x30 }
  - { offsetInCU: 0x17568, offset: 0x17568, size: 0x8, addend: 0x0, symName: __ZNSt3__122__compressed_pair_elemINS_12basic_stringIcNS_11char_traitsIcEENS_9allocatorIcEEE5__repELi0ELb0EEC2B7v160006ENS_18__default_init_tagE, symObjAddr: 0x7410, symBinAddr: 0x100009B30, symSize: 0x10 }
  - { offsetInCU: 0x1759B, offset: 0x1759B, size: 0x8, addend: 0x0, symName: __ZNSt3__122__compressed_pair_elemINS_9allocatorIcEELi1ELb1EEC2B7v160006ENS_18__default_init_tagE, symObjAddr: 0x7420, symBinAddr: 0x100009B40, symSize: 0x20 }
  - { offsetInCU: 0x175CE, offset: 0x175CE, size: 0x8, addend: 0x0, symName: __ZNSt3__19allocatorIcEC2B7v160006Ev, symObjAddr: 0x7440, symBinAddr: 0x100009B60, symSize: 0x20 }
  - { offsetInCU: 0x175F7, offset: 0x175F7, size: 0x8, addend: 0x0, symName: __ZNSt3__116__non_trivial_ifILb1ENS_9allocatorIcEEEC2B7v160006Ev, symObjAddr: 0x7460, symBinAddr: 0x100009B80, symSize: 0x10 }
  - { offsetInCU: 0x17620, offset: 0x17620, size: 0x8, addend: 0x0, symName: __ZNSt3__112basic_stringIcNS_11char_traitsIcEENS_9allocatorIcEEE13__get_pointerB7v160006Ev, symObjAddr: 0x7480, symBinAddr: 0x100009BA0, symSize: 0x50 }
  - { offsetInCU: 0x17645, offset: 0x17645, size: 0x8, addend: 0x0, symName: __ZNKSt3__112basic_stringIcNS_11char_traitsIcEENS_9allocatorIcEEE9__is_longB7v160006Ev, symObjAddr: 0x74D0, symBinAddr: 0x100009BF0, symSize: 0x30 }
  - { offsetInCU: 0x1766A, offset: 0x1766A, size: 0x8, addend: 0x0, symName: __ZNSt3__112basic_stringIcNS_11char_traitsIcEENS_9allocatorIcEEE18__get_long_pointerB7v160006Ev, symObjAddr: 0x7500, symBinAddr: 0x100009C20, symSize: 0x20 }
  - { offsetInCU: 0x1768F, offset: 0x1768F, size: 0x8, addend: 0x0, symName: __ZNSt3__112basic_stringIcNS_11char_traitsIcEENS_9allocatorIcEEE19__get_short_pointerB7v160006Ev, symObjAddr: 0x7520, symBinAddr: 0x100009C40, symSize: 0x30 }
  - { offsetInCU: 0x176B4, offset: 0x176B4, size: 0x8, addend: 0x0, symName: __ZNKSt3__117__compressed_pairINS_12basic_stringIcNS_11char_traitsIcEENS_9allocatorIcEEE5__repES5_E5firstB7v160006Ev, symObjAddr: 0x7550, symBinAddr: 0x100009C70, symSize: 0x20 }
  - { offsetInCU: 0x176D9, offset: 0x176D9, size: 0x8, addend: 0x0, symName: __ZNKSt3__122__compressed_pair_elemINS_12basic_stringIcNS_11char_traitsIcEENS_9allocatorIcEEE5__repELi0ELb0EE5__getB7v160006Ev, symObjAddr: 0x7570, symBinAddr: 0x100009C90, symSize: 0x10 }
  - { offsetInCU: 0x176FE, offset: 0x176FE, size: 0x8, addend: 0x0, symName: __ZNSt3__117__compressed_pairINS_12basic_stringIcNS_11char_traitsIcEENS_9allocatorIcEEE5__repES5_E5firstB7v160006Ev, symObjAddr: 0x7580, symBinAddr: 0x100009CA0, symSize: 0x20 }
  - { offsetInCU: 0x17723, offset: 0x17723, size: 0x8, addend: 0x0, symName: __ZNSt3__122__compressed_pair_elemINS_12basic_stringIcNS_11char_traitsIcEENS_9allocatorIcEEE5__repELi0ELb0EE5__getB7v160006Ev, symObjAddr: 0x75A0, symBinAddr: 0x100009CC0, symSize: 0x10 }
  - { offsetInCU: 0x17748, offset: 0x17748, size: 0x8, addend: 0x0, symName: __ZNSt3__114pointer_traitsIPcE10pointer_toB7v160006ERc, symObjAddr: 0x75B0, symBinAddr: 0x100009CD0, symSize: 0x10 }
  - { offsetInCU: 0x1776B, offset: 0x1776B, size: 0x8, addend: 0x0, symName: __ZNSt3__119ostreambuf_iteratorIcNS_11char_traitsIcEEEC2B7v160006ERNS_13basic_ostreamIcS2_EE, symObjAddr: 0x75C0, symBinAddr: 0x100009CE0, symSize: 0x50 }
  - { offsetInCU: 0x177A1, offset: 0x177A1, size: 0x8, addend: 0x0, symName: __ZNKSt3__19basic_iosIcNS_11char_traitsIcEEE5rdbufB7v160006Ev, symObjAddr: 0x7610, symBinAddr: 0x100009D30, symSize: 0x20 }
  - { offsetInCU: 0x177C8, offset: 0x177C8, size: 0x8, addend: 0x0, symName: __ZNKSt3__18ios_base5rdbufB7v160006Ev, symObjAddr: 0x7630, symBinAddr: 0x100009D50, symSize: 0x20 }
  - { offsetInCU: 0x177ED, offset: 0x177ED, size: 0x8, addend: 0x0, symName: __ZNSt3__111char_traitsIcE11eq_int_typeEii, symObjAddr: 0x7650, symBinAddr: 0x100009D70, symSize: 0x20 }
  - { offsetInCU: 0x1781E, offset: 0x1781E, size: 0x8, addend: 0x0, symName: __ZNSt3__111char_traitsIcE3eofEv, symObjAddr: 0x7670, symBinAddr: 0x100009D90, symSize: 0x10 }
  - { offsetInCU: 0x17831, offset: 0x17831, size: 0x8, addend: 0x0, symName: __ZNKSt3__19basic_iosIcNS_11char_traitsIcEEE5widenB7v160006Ec, symObjAddr: 0x7680, symBinAddr: 0x100009DA0, symSize: 0x80 }
  - { offsetInCU: 0x1789E, offset: 0x1789E, size: 0x8, addend: 0x0, symName: __ZNKSt3__15ctypeIcE5widenB7v160006Ec, symObjAddr: 0x7730, symBinAddr: 0x100009E50, symSize: 0x30 }
  - { offsetInCU: 0x178D1, offset: 0x178D1, size: 0x8, addend: 0x0, symName: __ZNSt3__18ios_base8setstateB7v160006Ej, symObjAddr: 0x7760, symBinAddr: 0x100009E80, symSize: 0x30 }
  - { offsetInCU: 0x17907, offset: 0x17907, size: 0x8, addend: 0x0, symName: __ZNSt3__16vectorI11DroneFlightNS_9allocatorIS1_EEEC2Em, symObjAddr: 0x77B0, symBinAddr: 0x100009ED0, symSize: 0xE0 }
  - { offsetInCU: 0x17956, offset: 0x17956, size: 0x8, addend: 0x0, symName: __ZNSt3__117__compressed_pairIP11DroneFlightNS_9allocatorIS1_EEEC1B7v160006IDnNS_18__default_init_tagEEEOT_OT0_, symObjAddr: 0x7890, symBinAddr: 0x100009FB0, symSize: 0x30 }
  - { offsetInCU: 0x179AD, offset: 0x179AD, size: 0x8, addend: 0x0, symName: __ZNSt3__16vectorI11DroneFlightNS_9allocatorIS1_EEE16__destroy_vectorC1ERS4_, symObjAddr: 0x7900, symBinAddr: 0x10000A020, symSize: 0x30 }
  - { offsetInCU: 0x179E5, offset: 0x179E5, size: 0x8, addend: 0x0, symName: __ZNSt3__16vectorI11DroneFlightNS_9allocatorIS1_EEE11__vallocateB7v160006Em, symObjAddr: 0x7940, symBinAddr: 0x10000A060, symSize: 0xA0 }
  - { offsetInCU: 0x17A27, offset: 0x17A27, size: 0x8, addend: 0x0, symName: __ZNSt3__16vectorI11DroneFlightNS_9allocatorIS1_EEE18__construct_at_endEm, symObjAddr: 0x79E0, symBinAddr: 0x10000A100, symSize: 0xC0 }
  - { offsetInCU: 0x17A98, offset: 0x17A98, size: 0x8, addend: 0x0, symName: __ZNSt3__128__exception_guard_exceptionsINS_6vectorI11DroneFlightNS_9allocatorIS2_EEE16__destroy_vectorEE10__completeB7v160006Ev, symObjAddr: 0x7AA0, symBinAddr: 0x10000A1C0, symSize: 0x20 }
  - { offsetInCU: 0x17ABD, offset: 0x17ABD, size: 0x8, addend: 0x0, symName: __ZNSt3__128__exception_guard_exceptionsINS_6vectorI11DroneFlightNS_9allocatorIS2_EEE16__destroy_vectorEED1B7v160006Ev, symObjAddr: 0x7AC0, symBinAddr: 0x10000A1E0, symSize: 0x20 }
  - { offsetInCU: 0x17AE6, offset: 0x17AE6, size: 0x8, addend: 0x0, symName: __ZNSt3__117__compressed_pairIP11DroneFlightNS_9allocatorIS1_EEEC2B7v160006IDnNS_18__default_init_tagEEEOT_OT0_, symObjAddr: 0x7AE0, symBinAddr: 0x10000A200, symSize: 0x40 }
  - { offsetInCU: 0x17B3D, offset: 0x17B3D, size: 0x8, addend: 0x0, symName: __ZNSt3__122__compressed_pair_elemIP11DroneFlightLi0ELb0EEC2B7v160006IDnvEEOT_, symObjAddr: 0x7B20, symBinAddr: 0x10000A240, symSize: 0x20 }
  - { offsetInCU: 0x17B7E, offset: 0x17B7E, size: 0x8, addend: 0x0, symName: __ZNSt3__122__compressed_pair_elemINS_9allocatorI11DroneFlightEELi1ELb1EEC2B7v160006ENS_18__default_init_tagE, symObjAddr: 0x7B40, symBinAddr: 0x10000A260, symSize: 0x20 }
  - { offsetInCU: 0x17BB1, offset: 0x17BB1, size: 0x8, addend: 0x0, symName: __ZNSt3__19allocatorI11DroneFlightEC2B7v160006Ev, symObjAddr: 0x7B60, symBinAddr: 0x10000A280, symSize: 0x20 }
  - { offsetInCU: 0x17BDA, offset: 0x17BDA, size: 0x8, addend: 0x0, symName: __ZNSt3__116__non_trivial_ifILb1ENS_9allocatorI11DroneFlightEEEC2B7v160006Ev, symObjAddr: 0x7B80, symBinAddr: 0x10000A2A0, symSize: 0x10 }
  - { offsetInCU: 0x17C03, offset: 0x17C03, size: 0x8, addend: 0x0, symName: __ZNSt3__128__exception_guard_exceptionsINS_6vectorI11DroneFlightNS_9allocatorIS2_EEE16__destroy_vectorEEC1B7v160006ES6_, symObjAddr: 0x7B90, symBinAddr: 0x10000A2B0, symSize: 0x30 }
  - { offsetInCU: 0x17C3A, offset: 0x17C3A, size: 0x8, addend: 0x0, symName: __ZNSt3__128__exception_guard_exceptionsINS_6vectorI11DroneFlightNS_9allocatorIS2_EEE16__destroy_vectorEEC2B7v160006ES6_, symObjAddr: 0x7BC0, symBinAddr: 0x10000A2E0, symSize: 0x20 }
  - { offsetInCU: 0x17C71, offset: 0x17C71, size: 0x8, addend: 0x0, symName: __ZNSt3__16vectorI11DroneFlightNS_9allocatorIS1_EEE16__destroy_vectorC2ERS4_, symObjAddr: 0x7BE0, symBinAddr: 0x10000A300, symSize: 0x20 }
  - { offsetInCU: 0x17CA8, offset: 0x17CA8, size: 0x8, addend: 0x0, symName: __ZNKSt3__16vectorI11DroneFlightNS_9allocatorIS1_EEE8max_sizeEv, symObjAddr: 0x7C00, symBinAddr: 0x10000A320, symSize: 0x60 }
  - { offsetInCU: 0x17CCF, offset: 0x17CCF, size: 0x8, addend: 0x0, symName: __ZNKSt3__16vectorI11DroneFlightNS_9allocatorIS1_EEE20__throw_length_errorB7v160006Ev, symObjAddr: 0x7C60, symBinAddr: 0x10000A380, symSize: 0x20 }
  - { offsetInCU: 0x17CF4, offset: 0x17CF4, size: 0x8, addend: 0x0, symName: __ZNSt3__16vectorI11DroneFlightNS_9allocatorIS1_EEE7__allocB7v160006Ev, symObjAddr: 0x7CC0, symBinAddr: 0x10000A3E0, symSize: 0x20 }
  - { offsetInCU: 0x17D19, offset: 0x17D19, size: 0x8, addend: 0x0, symName: __ZNSt3__16vectorI11DroneFlightNS_9allocatorIS1_EEE9__end_capB7v160006Ev, symObjAddr: 0x7CE0, symBinAddr: 0x10000A400, symSize: 0x20 }
  - { offsetInCU: 0x17D3E, offset: 0x17D3E, size: 0x8, addend: 0x0, symName: __ZNKSt3__16vectorI11DroneFlightNS_9allocatorIS1_EEE14__annotate_newB7v160006Em, symObjAddr: 0x7D00, symBinAddr: 0x10000A420, symSize: 0xA0 }
  - { offsetInCU: 0x17D7C, offset: 0x17D7C, size: 0x8, addend: 0x0, symName: __ZNSt3__116allocator_traitsINS_9allocatorI11DroneFlightEEE8max_sizeB7v160006IS3_vEEmRKS3_, symObjAddr: 0x7DA0, symBinAddr: 0x10000A4C0, symSize: 0x20 }
  - { offsetInCU: 0x17DAA, offset: 0x17DAA, size: 0x8, addend: 0x0, symName: __ZNKSt3__16vectorI11DroneFlightNS_9allocatorIS1_EEE7__allocB7v160006Ev, symObjAddr: 0x7DC0, symBinAddr: 0x10000A4E0, symSize: 0x20 }
  - { offsetInCU: 0x17DCF, offset: 0x17DCF, size: 0x8, addend: 0x0, symName: __ZNKSt3__19allocatorI11DroneFlightE8max_sizeB7v160006Ev, symObjAddr: 0x7DE0, symBinAddr: 0x10000A500, symSize: 0x20 }
  - { offsetInCU: 0x17DF4, offset: 0x17DF4, size: 0x8, addend: 0x0, symName: __ZNKSt3__117__compressed_pairIP11DroneFlightNS_9allocatorIS1_EEE6secondB7v160006Ev, symObjAddr: 0x7E00, symBinAddr: 0x10000A520, symSize: 0x20 }
  - { offsetInCU: 0x17E19, offset: 0x17E19, size: 0x8, addend: 0x0, symName: __ZNKSt3__122__compressed_pair_elemINS_9allocatorI11DroneFlightEELi1ELb1EE5__getB7v160006Ev, symObjAddr: 0x7E20, symBinAddr: 0x10000A540, symSize: 0x10 }
  - { offsetInCU: 0x17E3E, offset: 0x17E3E, size: 0x8, addend: 0x0, symName: __ZNSt3__19allocatorI11DroneFlightE8allocateB7v160006Em, symObjAddr: 0x7E30, symBinAddr: 0x10000A550, symSize: 0x50 }
  - { offsetInCU: 0x17E71, offset: 0x17E71, size: 0x8, addend: 0x0, symName: __ZNSt3__117__compressed_pairIP11DroneFlightNS_9allocatorIS1_EEE6secondB7v160006Ev, symObjAddr: 0x7E80, symBinAddr: 0x10000A5A0, symSize: 0x20 }
  - { offsetInCU: 0x17E96, offset: 0x17E96, size: 0x8, addend: 0x0, symName: __ZNSt3__122__compressed_pair_elemINS_9allocatorI11DroneFlightEELi1ELb1EE5__getB7v160006Ev, symObjAddr: 0x7EA0, symBinAddr: 0x10000A5C0, symSize: 0x10 }
  - { offsetInCU: 0x17EBB, offset: 0x17EBB, size: 0x8, addend: 0x0, symName: __ZNSt3__117__compressed_pairIP11DroneFlightNS_9allocatorIS1_EEE5firstB7v160006Ev, symObjAddr: 0x7EB0, symBinAddr: 0x10000A5D0, symSize: 0x20 }
  - { offsetInCU: 0x17EE0, offset: 0x17EE0, size: 0x8, addend: 0x0, symName: __ZNSt3__122__compressed_pair_elemIP11DroneFlightLi0ELb0EE5__getB7v160006Ev, symObjAddr: 0x7ED0, symBinAddr: 0x10000A5F0, symSize: 0x10 }
  - { offsetInCU: 0x17F05, offset: 0x17F05, size: 0x8, addend: 0x0, symName: __ZNKSt3__16vectorI11DroneFlightNS_9allocatorIS1_EEE31__annotate_contiguous_containerB7v160006EPKvS6_S6_S6_, symObjAddr: 0x7EE0, symBinAddr: 0x10000A600, symSize: 0x20 }
  - { offsetInCU: 0x17F56, offset: 0x17F56, size: 0x8, addend: 0x0, symName: __ZNKSt3__16vectorI11DroneFlightNS_9allocatorIS1_EEE4dataB7v160006Ev, symObjAddr: 0x7F00, symBinAddr: 0x10000A620, symSize: 0x20 }
  - { offsetInCU: 0x17F7B, offset: 0x17F7B, size: 0x8, addend: 0x0, symName: __ZNKSt3__16vectorI11DroneFlightNS_9allocatorIS1_EEE8capacityB7v160006Ev, symObjAddr: 0x7F20, symBinAddr: 0x10000A640, symSize: 0x40 }
  - { offsetInCU: 0x17FA0, offset: 0x17FA0, size: 0x8, addend: 0x0, symName: __ZNKSt3__16vectorI11DroneFlightNS_9allocatorIS1_EEE9__end_capB7v160006Ev, symObjAddr: 0x7F70, symBinAddr: 0x10000A690, symSize: 0x20 }
  - { offsetInCU: 0x17FC5, offset: 0x17FC5, size: 0x8, addend: 0x0, symName: __ZNKSt3__117__compressed_pairIP11DroneFlightNS_9allocatorIS1_EEE5firstB7v160006Ev, symObjAddr: 0x7F90, symBinAddr: 0x10000A6B0, symSize: 0x20 }
  - { offsetInCU: 0x17FEA, offset: 0x17FEA, size: 0x8, addend: 0x0, symName: __ZNKSt3__122__compressed_pair_elemIP11DroneFlightLi0ELb0EE5__getB7v160006Ev, symObjAddr: 0x7FB0, symBinAddr: 0x10000A6D0, symSize: 0x10 }
  - { offsetInCU: 0x18028, offset: 0x18028, size: 0x8, addend: 0x0, symName: __ZNSt3__16vectorI11DroneFlightNS_9allocatorIS1_EEE21_ConstructTransactionC1B7v160006ERS4_m, symObjAddr: 0x7FC0, symBinAddr: 0x10000A6E0, symSize: 0x30 }
  - { offsetInCU: 0x1806F, offset: 0x1806F, size: 0x8, addend: 0x0, symName: __ZNSt3__116allocator_traitsINS_9allocatorI11DroneFlightEEE9constructB7v160006IS2_JEvEEvRS3_PT_DpOT0_, symObjAddr: 0x7FF0, symBinAddr: 0x10000A710, symSize: 0x30 }
  - { offsetInCU: 0x180B1, offset: 0x180B1, size: 0x8, addend: 0x0, symName: __ZNSt3__16vectorI11DroneFlightNS_9allocatorIS1_EEE21_ConstructTransactionD1B7v160006Ev, symObjAddr: 0x8020, symBinAddr: 0x10000A740, symSize: 0x20 }
  - { offsetInCU: 0x180DA, offset: 0x180DA, size: 0x8, addend: 0x0, symName: __ZNSt3__16vectorI11DroneFlightNS_9allocatorIS1_EEE21_ConstructTransactionC2B7v160006ERS4_m, symObjAddr: 0x8040, symBinAddr: 0x10000A760, symSize: 0x40 }
  - { offsetInCU: 0x18121, offset: 0x18121, size: 0x8, addend: 0x0, symName: __ZNSt3__19allocatorI11DroneFlightE9constructB7v160006IS1_JEEEvPT_DpOT0_, symObjAddr: 0x8080, symBinAddr: 0x10000A7A0, symSize: 0x40 }
  - { offsetInCU: 0x18162, offset: 0x18162, size: 0x8, addend: 0x0, symName: __ZNSt3__16vectorI11DroneFlightNS_9allocatorIS1_EEE21_ConstructTransactionD2B7v160006Ev, symObjAddr: 0x80C0, symBinAddr: 0x10000A7E0, symSize: 0x20 }
  - { offsetInCU: 0x1818B, offset: 0x1818B, size: 0x8, addend: 0x0, symName: __ZNSt3__128__exception_guard_exceptionsINS_6vectorI11DroneFlightNS_9allocatorIS2_EEE16__destroy_vectorEED2B7v160006Ev, symObjAddr: 0x80E0, symBinAddr: 0x10000A800, symSize: 0x40 }
  - { offsetInCU: 0x181B4, offset: 0x181B4, size: 0x8, addend: 0x0, symName: __ZNSt3__16vectorI11DroneFlightNS_9allocatorIS1_EEE16__destroy_vectorclB7v160006Ev, symObjAddr: 0x8120, symBinAddr: 0x10000A840, symSize: 0x90 }
  - { offsetInCU: 0x181D9, offset: 0x181D9, size: 0x8, addend: 0x0, symName: __ZNKSt3__16vectorI11DroneFlightNS_9allocatorIS1_EEE17__annotate_deleteB7v160006Ev, symObjAddr: 0x81B0, symBinAddr: 0x10000A8D0, symSize: 0xB0 }
  - { offsetInCU: 0x181FE, offset: 0x181FE, size: 0x8, addend: 0x0, symName: __ZNSt3__16vectorI11DroneFlightNS_9allocatorIS1_EEE7__clearB7v160006Ev, symObjAddr: 0x8270, symBinAddr: 0x10000A990, symSize: 0x20 }
  - { offsetInCU: 0x18223, offset: 0x18223, size: 0x8, addend: 0x0, symName: __ZNSt3__116allocator_traitsINS_9allocatorI11DroneFlightEEE10deallocateB7v160006ERS3_PS2_m, symObjAddr: 0x8290, symBinAddr: 0x10000A9B0, symSize: 0x30 }
  - { offsetInCU: 0x18265, offset: 0x18265, size: 0x8, addend: 0x0, symName: __ZNKSt3__16vectorI11DroneFlightNS_9allocatorIS1_EEE4sizeB7v160006Ev, symObjAddr: 0x82C0, symBinAddr: 0x10000A9E0, symSize: 0x30 }
  - { offsetInCU: 0x1828A, offset: 0x1828A, size: 0x8, addend: 0x0, symName: __ZNSt3__16vectorI11DroneFlightNS_9allocatorIS1_EEE22__base_destruct_at_endB7v160006EPS1_, symObjAddr: 0x82F0, symBinAddr: 0x10000AA10, symSize: 0x80 }
  - { offsetInCU: 0x182CD, offset: 0x182CD, size: 0x8, addend: 0x0, symName: __ZNSt3__116allocator_traitsINS_9allocatorI11DroneFlightEEE7destroyB7v160006IS2_vEEvRS3_PT_, symObjAddr: 0x8370, symBinAddr: 0x10000AA90, symSize: 0x30 }
  - { offsetInCU: 0x1830A, offset: 0x1830A, size: 0x8, addend: 0x0, symName: __ZNSt3__19allocatorI11DroneFlightE7destroyB7v160006EPS1_, symObjAddr: 0x83A0, symBinAddr: 0x10000AAC0, symSize: 0x20 }
  - { offsetInCU: 0x1833D, offset: 0x1833D, size: 0x8, addend: 0x0, symName: __ZNSt3__19allocatorI11DroneFlightE10deallocateB7v160006EPS1_m, symObjAddr: 0x83C0, symBinAddr: 0x10000AAE0, symSize: 0x50 }
  - { offsetInCU: 0x1837E, offset: 0x1837E, size: 0x8, addend: 0x0, symName: __ZNSt3__16vectorI11DroneFlightNS_9allocatorIS1_EEED2B7v160006Ev, symObjAddr: 0x8410, symBinAddr: 0x10000AB30, symSize: 0x40 }
  - { offsetInCU: 0x183A7, offset: 0x183A7, size: 0x8, addend: 0x0, symName: __ZNSt3__16vectorI8DropZoneNS_9allocatorIS1_EEED2B7v160006Ev, symObjAddr: 0x8450, symBinAddr: 0x10000AB70, symSize: 0x40 }
  - { offsetInCU: 0x183D0, offset: 0x183D0, size: 0x8, addend: 0x0, symName: __ZNSt3__16vectorI8DropZoneNS_9allocatorIS1_EEE16__destroy_vectorC1ERS4_, symObjAddr: 0x8490, symBinAddr: 0x10000ABB0, symSize: 0x30 }
  - { offsetInCU: 0x18408, offset: 0x18408, size: 0x8, addend: 0x0, symName: __ZNSt3__16vectorI8DropZoneNS_9allocatorIS1_EEE16__destroy_vectorclB7v160006Ev, symObjAddr: 0x84C0, symBinAddr: 0x10000ABE0, symSize: 0x90 }
  - { offsetInCU: 0x1842D, offset: 0x1842D, size: 0x8, addend: 0x0, symName: __ZNSt3__16vectorI8DropZoneNS_9allocatorIS1_EEE16__destroy_vectorC2ERS4_, symObjAddr: 0x8550, symBinAddr: 0x10000AC70, symSize: 0x20 }
  - { offsetInCU: 0x18465, offset: 0x18465, size: 0x8, addend: 0x0, symName: __ZNKSt3__16vectorI8DropZoneNS_9allocatorIS1_EEE17__annotate_deleteB7v160006Ev, symObjAddr: 0x8570, symBinAddr: 0x10000AC90, symSize: 0xB0 }
  - { offsetInCU: 0x1848A, offset: 0x1848A, size: 0x8, addend: 0x0, symName: __ZNSt3__16vectorI8DropZoneNS_9allocatorIS1_EEEC2Em, symObjAddr: 0x8630, symBinAddr: 0x10000AD50, symSize: 0xE0 }
  - { offsetInCU: 0x184D9, offset: 0x184D9, size: 0x8, addend: 0x0, symName: __ZNSt3__16vectorI8DropZoneNS_9allocatorIS1_EEE11__vallocateB7v160006Em, symObjAddr: 0x8750, symBinAddr: 0x10000AE70, symSize: 0xA0 }
  - { offsetInCU: 0x1851B, offset: 0x1851B, size: 0x8, addend: 0x0, symName: __ZNSt3__16vectorI8DropZoneNS_9allocatorIS1_EEE18__construct_at_endEm, symObjAddr: 0x87F0, symBinAddr: 0x10000AF10, symSize: 0xC0 }
  - { offsetInCU: 0x1858C, offset: 0x1858C, size: 0x8, addend: 0x0, symName: __ZNSt3__128__exception_guard_exceptionsINS_6vectorI8DropZoneNS_9allocatorIS2_EEE16__destroy_vectorEE10__completeB7v160006Ev, symObjAddr: 0x88B0, symBinAddr: 0x10000AFD0, symSize: 0x20 }
  - { offsetInCU: 0x185B1, offset: 0x185B1, size: 0x8, addend: 0x0, symName: __ZNSt3__128__exception_guard_exceptionsINS_6vectorI8DropZoneNS_9allocatorIS2_EEE16__destroy_vectorEED1B7v160006Ev, symObjAddr: 0x88D0, symBinAddr: 0x10000AFF0, symSize: 0x20 }
  - { offsetInCU: 0x185DA, offset: 0x185DA, size: 0x8, addend: 0x0, symName: __ZNSt3__128__exception_guard_exceptionsINS_6vectorI8DropZoneNS_9allocatorIS2_EEE16__destroy_vectorEEC1B7v160006ES6_, symObjAddr: 0x88F0, symBinAddr: 0x10000B010, symSize: 0x30 }
  - { offsetInCU: 0x18611, offset: 0x18611, size: 0x8, addend: 0x0, symName: __ZNSt3__128__exception_guard_exceptionsINS_6vectorI8DropZoneNS_9allocatorIS2_EEE16__destroy_vectorEEC2B7v160006ES6_, symObjAddr: 0x8920, symBinAddr: 0x10000B040, symSize: 0x20 }
  - { offsetInCU: 0x18647, offset: 0x18647, size: 0x8, addend: 0x0, symName: __ZNKSt3__16vectorI8DropZoneNS_9allocatorIS1_EEE8max_sizeEv, symObjAddr: 0x8940, symBinAddr: 0x10000B060, symSize: 0x60 }
  - { offsetInCU: 0x1866E, offset: 0x1866E, size: 0x8, addend: 0x0, symName: __ZNKSt3__16vectorI8DropZoneNS_9allocatorIS1_EEE20__throw_length_errorB7v160006Ev, symObjAddr: 0x89A0, symBinAddr: 0x10000B0C0, symSize: 0x20 }
  - { offsetInCU: 0x18693, offset: 0x18693, size: 0x8, addend: 0x0, symName: __ZNKSt3__16vectorI8DropZoneNS_9allocatorIS1_EEE14__annotate_newB7v160006Em, symObjAddr: 0x8A00, symBinAddr: 0x10000B120, symSize: 0xA0 }
  - { offsetInCU: 0x186D1, offset: 0x186D1, size: 0x8, addend: 0x0, symName: __ZNSt3__116allocator_traitsINS_9allocatorI8DropZoneEEE8max_sizeB7v160006IS3_vEEmRKS3_, symObjAddr: 0x8AA0, symBinAddr: 0x10000B1C0, symSize: 0x20 }
  - { offsetInCU: 0x186FF, offset: 0x186FF, size: 0x8, addend: 0x0, symName: __ZNKSt3__16vectorI8DropZoneNS_9allocatorIS1_EEE7__allocB7v160006Ev, symObjAddr: 0x8AC0, symBinAddr: 0x10000B1E0, symSize: 0x20 }
  - { offsetInCU: 0x18724, offset: 0x18724, size: 0x8, addend: 0x0, symName: __ZNKSt3__19allocatorI8DropZoneE8max_sizeB7v160006Ev, symObjAddr: 0x8AE0, symBinAddr: 0x10000B200, symSize: 0x20 }
  - { offsetInCU: 0x18749, offset: 0x18749, size: 0x8, addend: 0x0, symName: __ZNKSt3__117__compressed_pairIP8DropZoneNS_9allocatorIS1_EEE6secondB7v160006Ev, symObjAddr: 0x8B00, symBinAddr: 0x10000B220, symSize: 0x20 }
  - { offsetInCU: 0x1876E, offset: 0x1876E, size: 0x8, addend: 0x0, symName: __ZNKSt3__122__compressed_pair_elemINS_9allocatorI8DropZoneEELi1ELb1EE5__getB7v160006Ev, symObjAddr: 0x8B20, symBinAddr: 0x10000B240, symSize: 0x10 }
  - { offsetInCU: 0x18793, offset: 0x18793, size: 0x8, addend: 0x0, symName: __ZNSt3__19allocatorI8DropZoneE8allocateB7v160006Em, symObjAddr: 0x8B30, symBinAddr: 0x10000B250, symSize: 0x50 }
  - { offsetInCU: 0x187DF, offset: 0x187DF, size: 0x8, addend: 0x0, symName: __ZNSt3__16vectorI8DropZoneNS_9allocatorIS1_EEE21_ConstructTransactionC1B7v160006ERS4_m, symObjAddr: 0x8B80, symBinAddr: 0x10000B2A0, symSize: 0x30 }
  - { offsetInCU: 0x18826, offset: 0x18826, size: 0x8, addend: 0x0, symName: __ZNSt3__116allocator_traitsINS_9allocatorI8DropZoneEEE9constructB7v160006IS2_JEvEEvRS3_PT_DpOT0_, symObjAddr: 0x8BB0, symBinAddr: 0x10000B2D0, symSize: 0x30 }
  - { offsetInCU: 0x18868, offset: 0x18868, size: 0x8, addend: 0x0, symName: __ZNSt3__16vectorI8DropZoneNS_9allocatorIS1_EEE21_ConstructTransactionD1B7v160006Ev, symObjAddr: 0x8BE0, symBinAddr: 0x10000B300, symSize: 0x20 }
  - { offsetInCU: 0x18891, offset: 0x18891, size: 0x8, addend: 0x0, symName: __ZNSt3__16vectorI8DropZoneNS_9allocatorIS1_EEE21_ConstructTransactionC2B7v160006ERS4_m, symObjAddr: 0x8C00, symBinAddr: 0x10000B320, symSize: 0x40 }
  - { offsetInCU: 0x188D8, offset: 0x188D8, size: 0x8, addend: 0x0, symName: __ZNSt3__19allocatorI8DropZoneE9constructB7v160006IS1_JEEEvPT_DpOT0_, symObjAddr: 0x8C40, symBinAddr: 0x10000B360, symSize: 0x30 }
  - { offsetInCU: 0x18919, offset: 0x18919, size: 0x8, addend: 0x0, symName: __ZNSt3__16vectorI8DropZoneNS_9allocatorIS1_EEE21_ConstructTransactionD2B7v160006Ev, symObjAddr: 0x8C70, symBinAddr: 0x10000B390, symSize: 0x20 }
  - { offsetInCU: 0x18942, offset: 0x18942, size: 0x8, addend: 0x0, symName: __ZNSt3__128__exception_guard_exceptionsINS_6vectorI8DropZoneNS_9allocatorIS2_EEE16__destroy_vectorEED2B7v160006Ev, symObjAddr: 0x8C90, symBinAddr: 0x10000B3B0, symSize: 0x40 }
  - { offsetInCU: 0x1896B, offset: 0x1896B, size: 0x8, addend: 0x0, symName: __ZNSt3__16vectorI8DropZoneNS_9allocatorIS1_EEE11__make_iterB7v160006EPS1_, symObjAddr: 0x8CD0, symBinAddr: 0x10000B3F0, symSize: 0x30 }
  - { offsetInCU: 0x1899F, offset: 0x1899F, size: 0x8, addend: 0x0, symName: __ZNSt3__111__wrap_iterIP8DropZoneEC1B7v160006EPKvS2_, symObjAddr: 0x8D00, symBinAddr: 0x10000B420, symSize: 0x30 }
  - { offsetInCU: 0x189E4, offset: 0x189E4, size: 0x8, addend: 0x0, symName: __ZNSt3__111__wrap_iterIP8DropZoneEC2B7v160006EPKvS2_, symObjAddr: 0x8D30, symBinAddr: 0x10000B450, symSize: 0x20 }
  - { offsetInCU: 0x18A29, offset: 0x18A29, size: 0x8, addend: 0x0, symName: __ZNSt3__16vectorI8DropZoneNS_9allocatorIS1_EEE22__construct_one_at_endB7v160006IJRKS1_EEEvDpOT_, symObjAddr: 0x8D50, symBinAddr: 0x10000B470, symSize: 0x90 }
  - { offsetInCU: 0x18A76, offset: 0x18A76, size: 0x8, addend: 0x0, symName: __ZNSt3__16vectorI8DropZoneNS_9allocatorIS1_EEE21__push_back_slow_pathIRKS1_EEvOT_, symObjAddr: 0x8DE0, symBinAddr: 0x10000B500, symSize: 0xD0 }
  - { offsetInCU: 0x18AD3, offset: 0x18AD3, size: 0x8, addend: 0x0, symName: __ZNSt3__116allocator_traitsINS_9allocatorI8DropZoneEEE9constructB7v160006IS2_JRKS2_EvEEvRS3_PT_DpOT0_, symObjAddr: 0x8EB0, symBinAddr: 0x10000B5D0, symSize: 0x30 }
  - { offsetInCU: 0x18B2A, offset: 0x18B2A, size: 0x8, addend: 0x0, symName: __ZNSt3__19allocatorI8DropZoneE9constructB7v160006IS1_JRKS1_EEEvPT_DpOT0_, symObjAddr: 0x8EE0, symBinAddr: 0x10000B600, symSize: 0x30 }
  - { offsetInCU: 0x18B7E, offset: 0x18B7E, size: 0x8, addend: 0x0, symName: __ZNKSt3__16vectorI8DropZoneNS_9allocatorIS1_EEE11__recommendB7v160006Em, symObjAddr: 0x8F10, symBinAddr: 0x10000B630, symSize: 0xA0 }
  - { offsetInCU: 0x18BD2, offset: 0x18BD2, size: 0x8, addend: 0x0, symName: __ZNSt3__114__split_bufferI8DropZoneRNS_9allocatorIS1_EEEC1EmmS4_, symObjAddr: 0x8FB0, symBinAddr: 0x10000B6D0, symSize: 0x40 }
  - { offsetInCU: 0x18C27, offset: 0x18C27, size: 0x8, addend: 0x0, symName: __ZNSt3__114__split_bufferI8DropZoneRNS_9allocatorIS1_EEED1Ev, symObjAddr: 0x9120, symBinAddr: 0x10000B840, symSize: 0x20 }
  - { offsetInCU: 0x18C52, offset: 0x18C52, size: 0x8, addend: 0x0, symName: __ZNSt3__114__split_bufferI8DropZoneRNS_9allocatorIS1_EEEC2EmmS4_, symObjAddr: 0x9140, symBinAddr: 0x10000B860, symSize: 0xC0 }
  - { offsetInCU: 0x18CC4, offset: 0x18CC4, size: 0x8, addend: 0x0, symName: __ZNSt3__117__compressed_pairIP8DropZoneRNS_9allocatorIS1_EEEC1B7v160006IDnS5_EEOT_OT0_, symObjAddr: 0x9200, symBinAddr: 0x10000B920, symSize: 0x30 }
  - { offsetInCU: 0x18D1B, offset: 0x18D1B, size: 0x8, addend: 0x0, symName: __ZNSt3__114__split_bufferI8DropZoneRNS_9allocatorIS1_EEE7__allocB7v160006Ev, symObjAddr: 0x9230, symBinAddr: 0x10000B950, symSize: 0x20 }
  - { offsetInCU: 0x18D40, offset: 0x18D40, size: 0x8, addend: 0x0, symName: __ZNSt3__114__split_bufferI8DropZoneRNS_9allocatorIS1_EEE9__end_capB7v160006Ev, symObjAddr: 0x9250, symBinAddr: 0x10000B970, symSize: 0x20 }
  - { offsetInCU: 0x18D65, offset: 0x18D65, size: 0x8, addend: 0x0, symName: __ZNSt3__117__compressed_pairIP8DropZoneRNS_9allocatorIS1_EEEC2B7v160006IDnS5_EEOT_OT0_, symObjAddr: 0x9270, symBinAddr: 0x10000B990, symSize: 0x40 }
  - { offsetInCU: 0x18DBC, offset: 0x18DBC, size: 0x8, addend: 0x0, symName: __ZNSt3__122__compressed_pair_elemIRNS_9allocatorI8DropZoneEELi1ELb0EEC2B7v160006IS4_vEEOT_, symObjAddr: 0x92B0, symBinAddr: 0x10000B9D0, symSize: 0x20 }
  - { offsetInCU: 0x18DFD, offset: 0x18DFD, size: 0x8, addend: 0x0, symName: __ZNSt3__117__compressed_pairIP8DropZoneRNS_9allocatorIS1_EEE6secondB7v160006Ev, symObjAddr: 0x92D0, symBinAddr: 0x10000B9F0, symSize: 0x20 }
  - { offsetInCU: 0x18E22, offset: 0x18E22, size: 0x8, addend: 0x0, symName: __ZNSt3__122__compressed_pair_elemIRNS_9allocatorI8DropZoneEELi1ELb0EE5__getB7v160006Ev, symObjAddr: 0x92F0, symBinAddr: 0x10000BA10, symSize: 0x20 }
  - { offsetInCU: 0x18E47, offset: 0x18E47, size: 0x8, addend: 0x0, symName: __ZNSt3__117__compressed_pairIP8DropZoneRNS_9allocatorIS1_EEE5firstB7v160006Ev, symObjAddr: 0x9310, symBinAddr: 0x10000BA30, symSize: 0x20 }
  - { offsetInCU: 0x18E6C, offset: 0x18E6C, size: 0x8, addend: 0x0, symName: __ZNSt3__116reverse_iteratorIP8DropZoneEC1B7v160006ES2_, symObjAddr: 0x93A0, symBinAddr: 0x10000BAC0, symSize: 0x30 }
  - { offsetInCU: 0x18EA3, offset: 0x18EA3, size: 0x8, addend: 0x0, symName: __ZNKSt3__116reverse_iteratorIP8DropZoneE4baseB7v160006Ev, symObjAddr: 0x93D0, symBinAddr: 0x10000BAF0, symSize: 0x20 }
  - { offsetInCU: 0x18EE1, offset: 0x18EE1, size: 0x8, addend: 0x0, symName: __ZNKSt3__111__move_loopINS_17_ClassicAlgPolicyEEclB7v160006INS_16reverse_iteratorIP8DropZoneEES7_S7_EENS_4pairIT_T1_EES9_T0_SA_, symObjAddr: 0x9870, symBinAddr: 0x10000BF90, symSize: 0xA0 }
  - { offsetInCU: 0x18F50, offset: 0x18F50, size: 0x8, addend: 0x0, symName: __ZNSt3__18_IterOpsINS_17_ClassicAlgPolicyEE11__iter_moveB7v160006IRNS_16reverse_iteratorIP8DropZoneEEEENS_9enable_ifIXsr12is_referenceIDTdeclsr3stdE7declvalIRT_EEEEE5valueEDTclsr3stdE4movedeclsr3stdE7declvalISB_EEEEE4typeEOSA_, symObjAddr: 0x9A90, symBinAddr: 0x10000C1B0, symSize: 0x20 }
  - { offsetInCU: 0x18F7C, offset: 0x18F7C, size: 0x8, addend: 0x0, symName: __ZNKSt3__116reverse_iteratorIP8DropZoneEdeB7v160006Ev, symObjAddr: 0x9AB0, symBinAddr: 0x10000C1D0, symSize: 0x30 }
  - { offsetInCU: 0x18FAF, offset: 0x18FAF, size: 0x8, addend: 0x0, symName: __ZNSt3__116reverse_iteratorIP8DropZoneEppB7v160006Ev, symObjAddr: 0x9AE0, symBinAddr: 0x10000C200, symSize: 0x20 }
  - { offsetInCU: 0x18FD4, offset: 0x18FD4, size: 0x8, addend: 0x0, symName: __ZNSt3__18_IterOpsINS_17_ClassicAlgPolicyEE25__validate_iter_referenceB7v160006IRNS_16reverse_iteratorIP8DropZoneEEEEvv, symObjAddr: 0x9B00, symBinAddr: 0x10000C220, symSize: 0x10 }
  - { offsetInCU: 0x18FF2, offset: 0x18FF2, size: 0x8, addend: 0x0, symName: __ZNSt3__118__unwrap_iter_implINS_16reverse_iteratorIP8DropZoneEELb0EE8__unwrapB7v160006ES4_, symObjAddr: 0x9B10, symBinAddr: 0x10000C230, symSize: 0x20 }
  - { offsetInCU: 0x1901A, offset: 0x1901A, size: 0x8, addend: 0x0, symName: __ZNSt3__14pairINS_16reverse_iteratorIP8DropZoneEES4_EC1B7v160006IS4_S4_LPv0EEEOT_OT0_, symObjAddr: 0x9B30, symBinAddr: 0x10000C250, symSize: 0x30 }
  - { offsetInCU: 0x19077, offset: 0x19077, size: 0x8, addend: 0x0, symName: __ZNSt3__14pairINS_16reverse_iteratorIP8DropZoneEES4_EC2B7v160006IS4_S4_LPv0EEEOT_OT0_, symObjAddr: 0x9B60, symBinAddr: 0x10000C280, symSize: 0x40 }
  - { offsetInCU: 0x190D4, offset: 0x190D4, size: 0x8, addend: 0x0, symName: __ZNSt3__118__unwrap_iter_implINS_16reverse_iteratorIP8DropZoneEELb0EE8__rewrapB7v160006ES4_S4_, symObjAddr: 0x9BA0, symBinAddr: 0x10000C2C0, symSize: 0x30 }
  - { offsetInCU: 0x19101, offset: 0x19101, size: 0x8, addend: 0x0, symName: __ZNSt3__116reverse_iteratorIP8DropZoneEC2B7v160006ES2_, symObjAddr: 0x9BD0, symBinAddr: 0x10000C2F0, symSize: 0x30 }
  - { offsetInCU: 0x19138, offset: 0x19138, size: 0x8, addend: 0x0, symName: __ZNSt3__114__split_bufferI8DropZoneRNS_9allocatorIS1_EEED2Ev, symObjAddr: 0x9C00, symBinAddr: 0x10000C320, symSize: 0x70 }
  - { offsetInCU: 0x19163, offset: 0x19163, size: 0x8, addend: 0x0, symName: __ZNSt3__114__split_bufferI8DropZoneRNS_9allocatorIS1_EEE5clearB7v160006Ev, symObjAddr: 0x9C70, symBinAddr: 0x10000C390, symSize: 0x20 }
  - { offsetInCU: 0x19188, offset: 0x19188, size: 0x8, addend: 0x0, symName: __ZNKSt3__114__split_bufferI8DropZoneRNS_9allocatorIS1_EEE8capacityB7v160006Ev, symObjAddr: 0x9C90, symBinAddr: 0x10000C3B0, symSize: 0x40 }
  - { offsetInCU: 0x191AD, offset: 0x191AD, size: 0x8, addend: 0x0, symName: __ZNSt3__114__split_bufferI8DropZoneRNS_9allocatorIS1_EEE17__destruct_at_endB7v160006EPS1_, symObjAddr: 0x9CD0, symBinAddr: 0x10000C3F0, symSize: 0x30 }
  - { offsetInCU: 0x191DF, offset: 0x191DF, size: 0x8, addend: 0x0, symName: __ZNSt3__114__split_bufferI8DropZoneRNS_9allocatorIS1_EEE17__destruct_at_endB7v160006EPS1_NS_17integral_constantIbLb0EEE, symObjAddr: 0x9D00, symBinAddr: 0x10000C420, symSize: 0x80 }
  - { offsetInCU: 0x1921E, offset: 0x1921E, size: 0x8, addend: 0x0, symName: __ZNKSt3__114__split_bufferI8DropZoneRNS_9allocatorIS1_EEE9__end_capB7v160006Ev, symObjAddr: 0x9D80, symBinAddr: 0x10000C4A0, symSize: 0x20 }
  - { offsetInCU: 0x19243, offset: 0x19243, size: 0x8, addend: 0x0, symName: __ZNKSt3__117__compressed_pairIP8DropZoneRNS_9allocatorIS1_EEE5firstB7v160006Ev, symObjAddr: 0x9DA0, symBinAddr: 0x10000C4C0, symSize: 0x20 }
  - { offsetInCU: 0x19268, offset: 0x19268, size: 0x8, addend: 0x0, symName: __ZNSt3__16vectorI11DroneFlightNS_9allocatorIS1_EEE11__make_iterB7v160006EPS1_, symObjAddr: 0x9DC0, symBinAddr: 0x10000C4E0, symSize: 0x30 }
  - { offsetInCU: 0x1929C, offset: 0x1929C, size: 0x8, addend: 0x0, symName: __ZNSt3__111__wrap_iterIP11DroneFlightEC1B7v160006EPKvS2_, symObjAddr: 0x9DF0, symBinAddr: 0x10000C510, symSize: 0x30 }
  - { offsetInCU: 0x192E1, offset: 0x192E1, size: 0x8, addend: 0x0, symName: __ZNSt3__111__wrap_iterIP11DroneFlightEC2B7v160006EPKvS2_, symObjAddr: 0x9E20, symBinAddr: 0x10000C540, symSize: 0x20 }
  - { offsetInCU: 0x19326, offset: 0x19326, size: 0x8, addend: 0x0, symName: __ZNSt3__16vectorIdNS_9allocatorIdEEED2B7v160006Ev, symObjAddr: 0x9E40, symBinAddr: 0x10000C560, symSize: 0x40 }
  - { offsetInCU: 0x1934F, offset: 0x1934F, size: 0x8, addend: 0x0, symName: __ZNSt3__16vectorIdNS_9allocatorIdEEE16__destroy_vectorC1ERS3_, symObjAddr: 0x9E80, symBinAddr: 0x10000C5A0, symSize: 0x30 }
  - { offsetInCU: 0x19387, offset: 0x19387, size: 0x8, addend: 0x0, symName: __ZNSt3__16vectorIdNS_9allocatorIdEEE16__destroy_vectorclB7v160006Ev, symObjAddr: 0x9EB0, symBinAddr: 0x10000C5D0, symSize: 0x90 }
  - { offsetInCU: 0x193AC, offset: 0x193AC, size: 0x8, addend: 0x0, symName: __ZNSt3__16vectorIdNS_9allocatorIdEEE16__destroy_vectorC2ERS3_, symObjAddr: 0x9F40, symBinAddr: 0x10000C660, symSize: 0x20 }
  - { offsetInCU: 0x193E4, offset: 0x193E4, size: 0x8, addend: 0x0, symName: __ZNKSt3__16vectorIdNS_9allocatorIdEEE17__annotate_deleteB7v160006Ev, symObjAddr: 0x9F60, symBinAddr: 0x10000C680, symSize: 0xB0 }
  - { offsetInCU: 0x19409, offset: 0x19409, size: 0x8, addend: 0x0, symName: __ZNSt3__16vectorIdNS_9allocatorIdEEE7__clearB7v160006Ev, symObjAddr: 0xA020, symBinAddr: 0x10000C740, symSize: 0x20 }
  - { offsetInCU: 0x1942E, offset: 0x1942E, size: 0x8, addend: 0x0, symName: __ZNSt3__116allocator_traitsINS_9allocatorIdEEE10deallocateB7v160006ERS2_Pdm, symObjAddr: 0xA040, symBinAddr: 0x10000C760, symSize: 0x30 }
  - { offsetInCU: 0x19470, offset: 0x19470, size: 0x8, addend: 0x0, symName: __ZNSt3__16vectorIdNS_9allocatorIdEEE7__allocB7v160006Ev, symObjAddr: 0xA070, symBinAddr: 0x10000C790, symSize: 0x20 }
  - { offsetInCU: 0x19495, offset: 0x19495, size: 0x8, addend: 0x0, symName: __ZNKSt3__16vectorIdNS_9allocatorIdEEE8capacityB7v160006Ev, symObjAddr: 0xA090, symBinAddr: 0x10000C7B0, symSize: 0x30 }
  - { offsetInCU: 0x194BA, offset: 0x194BA, size: 0x8, addend: 0x0, symName: __ZNKSt3__16vectorIdNS_9allocatorIdEEE31__annotate_contiguous_containerB7v160006EPKvS5_S5_S5_, symObjAddr: 0xA0C0, symBinAddr: 0x10000C7E0, symSize: 0x20 }
  - { offsetInCU: 0x1950B, offset: 0x1950B, size: 0x8, addend: 0x0, symName: __ZNKSt3__16vectorIdNS_9allocatorIdEEE4dataB7v160006Ev, symObjAddr: 0xA0E0, symBinAddr: 0x10000C800, symSize: 0x20 }
  - { offsetInCU: 0x19530, offset: 0x19530, size: 0x8, addend: 0x0, symName: __ZNKSt3__16vectorIdNS_9allocatorIdEEE4sizeB7v160006Ev, symObjAddr: 0xA100, symBinAddr: 0x10000C820, symSize: 0x20 }
  - { offsetInCU: 0x19555, offset: 0x19555, size: 0x8, addend: 0x0, symName: __ZNSt3__16vectorIdNS_9allocatorIdEEE22__base_destruct_at_endB7v160006EPd, symObjAddr: 0xA130, symBinAddr: 0x10000C850, symSize: 0x80 }
  - { offsetInCU: 0x19598, offset: 0x19598, size: 0x8, addend: 0x0, symName: __ZNSt3__116allocator_traitsINS_9allocatorIdEEE7destroyB7v160006IdvEEvRS2_PT_, symObjAddr: 0xA1B0, symBinAddr: 0x10000C8D0, symSize: 0x30 }
  - { offsetInCU: 0x195D5, offset: 0x195D5, size: 0x8, addend: 0x0, symName: __ZNSt3__19allocatorIdE7destroyB7v160006EPd, symObjAddr: 0xA1E0, symBinAddr: 0x10000C900, symSize: 0x10 }
  - { offsetInCU: 0x19608, offset: 0x19608, size: 0x8, addend: 0x0, symName: __ZNSt3__19allocatorIdE10deallocateB7v160006EPdm, symObjAddr: 0xA1F0, symBinAddr: 0x10000C910, symSize: 0x40 }
  - { offsetInCU: 0x19649, offset: 0x19649, size: 0x8, addend: 0x0, symName: __ZNSt3__117__compressed_pairIPdNS_9allocatorIdEEE6secondB7v160006Ev, symObjAddr: 0xA230, symBinAddr: 0x10000C950, symSize: 0x20 }
  - { offsetInCU: 0x1966E, offset: 0x1966E, size: 0x8, addend: 0x0, symName: __ZNSt3__122__compressed_pair_elemINS_9allocatorIdEELi1ELb1EE5__getB7v160006Ev, symObjAddr: 0xA250, symBinAddr: 0x10000C970, symSize: 0x10 }
  - { offsetInCU: 0x19693, offset: 0x19693, size: 0x8, addend: 0x0, symName: __ZNKSt3__16vectorIdNS_9allocatorIdEEE9__end_capB7v160006Ev, symObjAddr: 0xA260, symBinAddr: 0x10000C980, symSize: 0x20 }
  - { offsetInCU: 0x196B8, offset: 0x196B8, size: 0x8, addend: 0x0, symName: __ZNKSt3__117__compressed_pairIPdNS_9allocatorIdEEE5firstB7v160006Ev, symObjAddr: 0xA280, symBinAddr: 0x10000C9A0, symSize: 0x20 }
  - { offsetInCU: 0x196DD, offset: 0x196DD, size: 0x8, addend: 0x0, symName: __ZNKSt3__122__compressed_pair_elemIPdLi0ELb0EE5__getB7v160006Ev, symObjAddr: 0xA2A0, symBinAddr: 0x10000C9C0, symSize: 0x10 }
  - { offsetInCU: 0x19702, offset: 0x19702, size: 0x8, addend: 0x0, symName: __ZNSt3__16vectorIdNS_9allocatorIdEEEC2B7v160006ESt16initializer_listIdE, symObjAddr: 0xA2B0, symBinAddr: 0x10000C9D0, symSize: 0x120 }
  - { offsetInCU: 0x19751, offset: 0x19751, size: 0x8, addend: 0x0, symName: __ZNSt3__117__compressed_pairIPdNS_9allocatorIdEEEC1B7v160006IDnNS_18__default_init_tagEEEOT_OT0_, symObjAddr: 0xA3D0, symBinAddr: 0x10000CAF0, symSize: 0x30 }
  - { offsetInCU: 0x197A8, offset: 0x197A8, size: 0x8, addend: 0x0, symName: __ZNKSt16initializer_listIdE4sizeB7v160006Ev, symObjAddr: 0xA450, symBinAddr: 0x10000CB70, symSize: 0x20 }
  - { offsetInCU: 0x197CD, offset: 0x197CD, size: 0x8, addend: 0x0, symName: __ZNSt3__16vectorIdNS_9allocatorIdEEE11__vallocateB7v160006Em, symObjAddr: 0xA470, symBinAddr: 0x10000CB90, symSize: 0xA0 }
  - { offsetInCU: 0x1980F, offset: 0x1980F, size: 0x8, addend: 0x0, symName: __ZNSt3__16vectorIdNS_9allocatorIdEEE18__construct_at_endIPKdLi0EEEvT_S7_m, symObjAddr: 0xA510, symBinAddr: 0x10000CC30, symSize: 0x90 }
  - { offsetInCU: 0x19881, offset: 0x19881, size: 0x8, addend: 0x0, symName: __ZNKSt16initializer_listIdE5beginB7v160006Ev, symObjAddr: 0xA5A0, symBinAddr: 0x10000CCC0, symSize: 0x20 }
  - { offsetInCU: 0x198A6, offset: 0x198A6, size: 0x8, addend: 0x0, symName: __ZNKSt16initializer_listIdE3endB7v160006Ev, symObjAddr: 0xA5C0, symBinAddr: 0x10000CCE0, symSize: 0x20 }
  - { offsetInCU: 0x198CB, offset: 0x198CB, size: 0x8, addend: 0x0, symName: __ZNSt3__128__exception_guard_exceptionsINS_6vectorIdNS_9allocatorIdEEE16__destroy_vectorEE10__completeB7v160006Ev, symObjAddr: 0xA5E0, symBinAddr: 0x10000CD00, symSize: 0x20 }
  - { offsetInCU: 0x198F0, offset: 0x198F0, size: 0x8, addend: 0x0, symName: __ZNSt3__128__exception_guard_exceptionsINS_6vectorIdNS_9allocatorIdEEE16__destroy_vectorEED1B7v160006Ev, symObjAddr: 0xA600, symBinAddr: 0x10000CD20, symSize: 0x20 }
  - { offsetInCU: 0x19919, offset: 0x19919, size: 0x8, addend: 0x0, symName: __ZNSt3__117__compressed_pairIPdNS_9allocatorIdEEEC2B7v160006IDnNS_18__default_init_tagEEEOT_OT0_, symObjAddr: 0xA620, symBinAddr: 0x10000CD40, symSize: 0x40 }
  - { offsetInCU: 0x19970, offset: 0x19970, size: 0x8, addend: 0x0, symName: __ZNSt3__122__compressed_pair_elemIPdLi0ELb0EEC2B7v160006IDnvEEOT_, symObjAddr: 0xA660, symBinAddr: 0x10000CD80, symSize: 0x20 }
  - { offsetInCU: 0x199B1, offset: 0x199B1, size: 0x8, addend: 0x0, symName: __ZNSt3__122__compressed_pair_elemINS_9allocatorIdEELi1ELb1EEC2B7v160006ENS_18__default_init_tagE, symObjAddr: 0xA680, symBinAddr: 0x10000CDA0, symSize: 0x20 }
  - { offsetInCU: 0x199E4, offset: 0x199E4, size: 0x8, addend: 0x0, symName: __ZNSt3__19allocatorIdEC2B7v160006Ev, symObjAddr: 0xA6A0, symBinAddr: 0x10000CDC0, symSize: 0x20 }
  - { offsetInCU: 0x19A0D, offset: 0x19A0D, size: 0x8, addend: 0x0, symName: __ZNSt3__116__non_trivial_ifILb1ENS_9allocatorIdEEEC2B7v160006Ev, symObjAddr: 0xA6C0, symBinAddr: 0x10000CDE0, symSize: 0x10 }
  - { offsetInCU: 0x19A36, offset: 0x19A36, size: 0x8, addend: 0x0, symName: __ZNSt3__128__exception_guard_exceptionsINS_6vectorIdNS_9allocatorIdEEE16__destroy_vectorEEC1B7v160006ES5_, symObjAddr: 0xA6D0, symBinAddr: 0x10000CDF0, symSize: 0x30 }
  - { offsetInCU: 0x19A6D, offset: 0x19A6D, size: 0x8, addend: 0x0, symName: __ZNSt3__128__exception_guard_exceptionsINS_6vectorIdNS_9allocatorIdEEE16__destroy_vectorEEC2B7v160006ES5_, symObjAddr: 0xA700, symBinAddr: 0x10000CE20, symSize: 0x20 }
  - { offsetInCU: 0x19AA3, offset: 0x19AA3, size: 0x8, addend: 0x0, symName: __ZNKSt3__16vectorIdNS_9allocatorIdEEE8max_sizeEv, symObjAddr: 0xA720, symBinAddr: 0x10000CE40, symSize: 0x60 }
  - { offsetInCU: 0x19ACA, offset: 0x19ACA, size: 0x8, addend: 0x0, symName: __ZNKSt3__16vectorIdNS_9allocatorIdEEE20__throw_length_errorB7v160006Ev, symObjAddr: 0xA780, symBinAddr: 0x10000CEA0, symSize: 0x20 }
  - { offsetInCU: 0x19AEF, offset: 0x19AEF, size: 0x8, addend: 0x0, symName: __ZNSt3__16vectorIdNS_9allocatorIdEEE9__end_capB7v160006Ev, symObjAddr: 0xA7E0, symBinAddr: 0x10000CF00, symSize: 0x20 }
  - { offsetInCU: 0x19B14, offset: 0x19B14, size: 0x8, addend: 0x0, symName: __ZNKSt3__16vectorIdNS_9allocatorIdEEE14__annotate_newB7v160006Em, symObjAddr: 0xA800, symBinAddr: 0x10000CF20, symSize: 0xB0 }
  - { offsetInCU: 0x19B52, offset: 0x19B52, size: 0x8, addend: 0x0, symName: __ZNSt3__116allocator_traitsINS_9allocatorIdEEE8max_sizeB7v160006IS2_vEEmRKS2_, symObjAddr: 0xA8B0, symBinAddr: 0x10000CFD0, symSize: 0x20 }
  - { offsetInCU: 0x19B80, offset: 0x19B80, size: 0x8, addend: 0x0, symName: __ZNKSt3__16vectorIdNS_9allocatorIdEEE7__allocB7v160006Ev, symObjAddr: 0xA8D0, symBinAddr: 0x10000CFF0, symSize: 0x20 }
  - { offsetInCU: 0x19BA5, offset: 0x19BA5, size: 0x8, addend: 0x0, symName: __ZNKSt3__19allocatorIdE8max_sizeB7v160006Ev, symObjAddr: 0xA8F0, symBinAddr: 0x10000D010, symSize: 0x20 }
  - { offsetInCU: 0x19BCA, offset: 0x19BCA, size: 0x8, addend: 0x0, symName: __ZNKSt3__117__compressed_pairIPdNS_9allocatorIdEEE6secondB7v160006Ev, symObjAddr: 0xA910, symBinAddr: 0x10000D030, symSize: 0x20 }
  - { offsetInCU: 0x19BEF, offset: 0x19BEF, size: 0x8, addend: 0x0, symName: __ZNKSt3__122__compressed_pair_elemINS_9allocatorIdEELi1ELb1EE5__getB7v160006Ev, symObjAddr: 0xA930, symBinAddr: 0x10000D050, symSize: 0x10 }
  - { offsetInCU: 0x19C14, offset: 0x19C14, size: 0x8, addend: 0x0, symName: __ZNSt3__19allocatorIdE8allocateB7v160006Em, symObjAddr: 0xA940, symBinAddr: 0x10000D060, symSize: 0x50 }
  - { offsetInCU: 0x19C47, offset: 0x19C47, size: 0x8, addend: 0x0, symName: __ZNSt3__117__compressed_pairIPdNS_9allocatorIdEEE5firstB7v160006Ev, symObjAddr: 0xA990, symBinAddr: 0x10000D0B0, symSize: 0x20 }
  - { offsetInCU: 0x19C6C, offset: 0x19C6C, size: 0x8, addend: 0x0, symName: __ZNSt3__122__compressed_pair_elemIPdLi0ELb0EE5__getB7v160006Ev, symObjAddr: 0xA9B0, symBinAddr: 0x10000D0D0, symSize: 0x10 }
  - { offsetInCU: 0x19CAA, offset: 0x19CAA, size: 0x8, addend: 0x0, symName: __ZNSt3__16vectorIdNS_9allocatorIdEEE21_ConstructTransactionC1B7v160006ERS3_m, symObjAddr: 0xA9C0, symBinAddr: 0x10000D0E0, symSize: 0x30 }
  - { offsetInCU: 0x19CF1, offset: 0x19CF1, size: 0x8, addend: 0x0, symName: __ZNSt3__16vectorIdNS_9allocatorIdEEE21_ConstructTransactionD1B7v160006Ev, symObjAddr: 0xAA20, symBinAddr: 0x10000D140, symSize: 0x20 }
  - { offsetInCU: 0x19D1A, offset: 0x19D1A, size: 0x8, addend: 0x0, symName: __ZNSt3__16vectorIdNS_9allocatorIdEEE21_ConstructTransactionC2B7v160006ERS3_m, symObjAddr: 0xAA40, symBinAddr: 0x10000D160, symSize: 0x40 }
  - { offsetInCU: 0x19D7A, offset: 0x19D7A, size: 0x8, addend: 0x0, symName: __ZNKSt3__114__copy_trivialclB7v160006IKddLi0EEENS_4pairIPT_PT0_EES5_S5_S7_, symObjAddr: 0xAC40, symBinAddr: 0x10000D360, symSize: 0x40 }
  - { offsetInCU: 0x19DFF, offset: 0x19DFF, size: 0x8, addend: 0x0, symName: __ZNSt3__14pairIPKdS2_EC1B7v160006IS2_S2_LPv0EEEOT_OT0_, symObjAddr: 0xAD90, symBinAddr: 0x10000D4B0, symSize: 0x30 }
  - { offsetInCU: 0x19E5C, offset: 0x19E5C, size: 0x8, addend: 0x0, symName: __ZNSt3__14pairIPKdS2_EC2B7v160006IS2_S2_LPv0EEEOT_OT0_, symObjAddr: 0xADC0, symBinAddr: 0x10000D4E0, symSize: 0x30 }
  - { offsetInCU: 0x19EB9, offset: 0x19EB9, size: 0x8, addend: 0x0, symName: __ZNSt3__118__unwrap_iter_implIPKdLb1EE8__unwrapB7v160006ES2_, symObjAddr: 0xADF0, symBinAddr: 0x10000D510, symSize: 0x20 }
  - { offsetInCU: 0x19EE6, offset: 0x19EE6, size: 0x8, addend: 0x0, symName: __ZNSt3__14pairIPKdPdEC1B7v160006IRS2_S3_LPv0EEEOT_OT0_, symObjAddr: 0xAEC0, symBinAddr: 0x10000D5E0, symSize: 0x30 }
  - { offsetInCU: 0x19F43, offset: 0x19F43, size: 0x8, addend: 0x0, symName: __ZNSt3__14pairIPKdPdEC2B7v160006IRS2_S3_LPv0EEEOT_OT0_, symObjAddr: 0xAEF0, symBinAddr: 0x10000D610, symSize: 0x30 }
  - { offsetInCU: 0x19FA0, offset: 0x19FA0, size: 0x8, addend: 0x0, symName: __ZNSt3__118__unwrap_iter_implIPdLb1EE8__unwrapB7v160006ES1_, symObjAddr: 0xAF20, symBinAddr: 0x10000D640, symSize: 0x20 }
  - { offsetInCU: 0x19FC3, offset: 0x19FC3, size: 0x8, addend: 0x0, symName: __ZNSt3__14pairIPKdPdEC1B7v160006IS2_S3_LPv0EEEOT_OT0_, symObjAddr: 0xAF40, symBinAddr: 0x10000D660, symSize: 0x30 }
  - { offsetInCU: 0x1A020, offset: 0x1A020, size: 0x8, addend: 0x0, symName: __ZNSt3__14pairIPKdPdEC2B7v160006IS2_S3_LPv0EEEOT_OT0_, symObjAddr: 0xAF70, symBinAddr: 0x10000D690, symSize: 0x30 }
  - { offsetInCU: 0x1A07D, offset: 0x1A07D, size: 0x8, addend: 0x0, symName: __ZNSt3__118__unwrap_iter_implIPKdLb1EE8__rewrapB7v160006ES2_S2_, symObjAddr: 0xAFE0, symBinAddr: 0x10000D700, symSize: 0x50 }
  - { offsetInCU: 0x1A0AE, offset: 0x1A0AE, size: 0x8, addend: 0x0, symName: __ZNSt3__118__unwrap_iter_implIPdLb1EE8__rewrapB7v160006ES1_S1_, symObjAddr: 0xB030, symBinAddr: 0x10000D750, symSize: 0x50 }
  - { offsetInCU: 0x1A0DF, offset: 0x1A0DF, size: 0x8, addend: 0x0, symName: __ZNSt3__16vectorIdNS_9allocatorIdEEE21_ConstructTransactionD2B7v160006Ev, symObjAddr: 0xB080, symBinAddr: 0x10000D7A0, symSize: 0x20 }
  - { offsetInCU: 0x1A108, offset: 0x1A108, size: 0x8, addend: 0x0, symName: __ZNSt3__128__exception_guard_exceptionsINS_6vectorIdNS_9allocatorIdEEE16__destroy_vectorEED2B7v160006Ev, symObjAddr: 0xB0A0, symBinAddr: 0x10000D7C0, symSize: 0x40 }
  - { offsetInCU: 0x1A131, offset: 0x1A131, size: 0x8, addend: 0x0, symName: __ZNSt3__16vectorINS0_IdNS_9allocatorIdEEEENS1_IS3_EEEC2B7v160006ESt16initializer_listIS3_E, symObjAddr: 0xB0E0, symBinAddr: 0x10000D800, symSize: 0x120 }
  - { offsetInCU: 0x1A180, offset: 0x1A180, size: 0x8, addend: 0x0, symName: __ZNSt3__117__compressed_pairIPNS_6vectorIdNS_9allocatorIdEEEENS2_IS4_EEEC1B7v160006IDnNS_18__default_init_tagEEEOT_OT0_, symObjAddr: 0xB200, symBinAddr: 0x10000D920, symSize: 0x30 }
  - { offsetInCU: 0x1A1D7, offset: 0x1A1D7, size: 0x8, addend: 0x0, symName: __ZNSt3__16vectorINS0_IdNS_9allocatorIdEEEENS1_IS3_EEE16__destroy_vectorC1ERS5_, symObjAddr: 0xB270, symBinAddr: 0x10000D990, symSize: 0x30 }
  - { offsetInCU: 0x1A20F, offset: 0x1A20F, size: 0x8, addend: 0x0, symName: __ZNKSt16initializer_listINSt3__16vectorIdNS0_9allocatorIdEEEEE4sizeB7v160006Ev, symObjAddr: 0xB2B0, symBinAddr: 0x10000D9D0, symSize: 0x20 }
  - { offsetInCU: 0x1A234, offset: 0x1A234, size: 0x8, addend: 0x0, symName: __ZNSt3__16vectorINS0_IdNS_9allocatorIdEEEENS1_IS3_EEE11__vallocateB7v160006Em, symObjAddr: 0xB2D0, symBinAddr: 0x10000D9F0, symSize: 0xA0 }
  - { offsetInCU: 0x1A276, offset: 0x1A276, size: 0x8, addend: 0x0, symName: __ZNSt3__16vectorINS0_IdNS_9allocatorIdEEEENS1_IS3_EEE18__construct_at_endIPKS3_Li0EEEvT_S9_m, symObjAddr: 0xB370, symBinAddr: 0x10000DA90, symSize: 0x90 }
  - { offsetInCU: 0x1A2E8, offset: 0x1A2E8, size: 0x8, addend: 0x0, symName: __ZNKSt16initializer_listINSt3__16vectorIdNS0_9allocatorIdEEEEE5beginB7v160006Ev, symObjAddr: 0xB400, symBinAddr: 0x10000DB20, symSize: 0x20 }
  - { offsetInCU: 0x1A30D, offset: 0x1A30D, size: 0x8, addend: 0x0, symName: __ZNKSt16initializer_listINSt3__16vectorIdNS0_9allocatorIdEEEEE3endB7v160006Ev, symObjAddr: 0xB420, symBinAddr: 0x10000DB40, symSize: 0x20 }
  - { offsetInCU: 0x1A332, offset: 0x1A332, size: 0x8, addend: 0x0, symName: __ZNSt3__128__exception_guard_exceptionsINS_6vectorINS1_IdNS_9allocatorIdEEEENS2_IS4_EEE16__destroy_vectorEE10__completeB7v160006Ev, symObjAddr: 0xB440, symBinAddr: 0x10000DB60, symSize: 0x20 }
  - { offsetInCU: 0x1A357, offset: 0x1A357, size: 0x8, addend: 0x0, symName: __ZNSt3__128__exception_guard_exceptionsINS_6vectorINS1_IdNS_9allocatorIdEEEENS2_IS4_EEE16__destroy_vectorEED1B7v160006Ev, symObjAddr: 0xB460, symBinAddr: 0x10000DB80, symSize: 0x20 }
  - { offsetInCU: 0x1A380, offset: 0x1A380, size: 0x8, addend: 0x0, symName: __ZNSt3__117__compressed_pairIPNS_6vectorIdNS_9allocatorIdEEEENS2_IS4_EEEC2B7v160006IDnNS_18__default_init_tagEEEOT_OT0_, symObjAddr: 0xB480, symBinAddr: 0x10000DBA0, symSize: 0x40 }
  - { offsetInCU: 0x1A3D7, offset: 0x1A3D7, size: 0x8, addend: 0x0, symName: __ZNSt3__122__compressed_pair_elemIPNS_6vectorIdNS_9allocatorIdEEEELi0ELb0EEC2B7v160006IDnvEEOT_, symObjAddr: 0xB4C0, symBinAddr: 0x10000DBE0, symSize: 0x20 }
  - { offsetInCU: 0x1A418, offset: 0x1A418, size: 0x8, addend: 0x0, symName: __ZNSt3__122__compressed_pair_elemINS_9allocatorINS_6vectorIdNS1_IdEEEEEELi1ELb1EEC2B7v160006ENS_18__default_init_tagE, symObjAddr: 0xB4E0, symBinAddr: 0x10000DC00, symSize: 0x20 }
  - { offsetInCU: 0x1A44B, offset: 0x1A44B, size: 0x8, addend: 0x0, symName: __ZNSt3__19allocatorINS_6vectorIdNS0_IdEEEEEC2B7v160006Ev, symObjAddr: 0xB500, symBinAddr: 0x10000DC20, symSize: 0x20 }
  - { offsetInCU: 0x1A474, offset: 0x1A474, size: 0x8, addend: 0x0, symName: __ZNSt3__116__non_trivial_ifILb1ENS_9allocatorINS_6vectorIdNS1_IdEEEEEEEC2B7v160006Ev, symObjAddr: 0xB520, symBinAddr: 0x10000DC40, symSize: 0x10 }
  - { offsetInCU: 0x1A49D, offset: 0x1A49D, size: 0x8, addend: 0x0, symName: __ZNSt3__128__exception_guard_exceptionsINS_6vectorINS1_IdNS_9allocatorIdEEEENS2_IS4_EEE16__destroy_vectorEEC1B7v160006ES7_, symObjAddr: 0xB530, symBinAddr: 0x10000DC50, symSize: 0x30 }
  - { offsetInCU: 0x1A4D4, offset: 0x1A4D4, size: 0x8, addend: 0x0, symName: __ZNSt3__128__exception_guard_exceptionsINS_6vectorINS1_IdNS_9allocatorIdEEEENS2_IS4_EEE16__destroy_vectorEEC2B7v160006ES7_, symObjAddr: 0xB560, symBinAddr: 0x10000DC80, symSize: 0x20 }
  - { offsetInCU: 0x1A50B, offset: 0x1A50B, size: 0x8, addend: 0x0, symName: __ZNSt3__16vectorINS0_IdNS_9allocatorIdEEEENS1_IS3_EEE16__destroy_vectorC2ERS5_, symObjAddr: 0xB580, symBinAddr: 0x10000DCA0, symSize: 0x20 }
  - { offsetInCU: 0x1A542, offset: 0x1A542, size: 0x8, addend: 0x0, symName: __ZNKSt3__16vectorINS0_IdNS_9allocatorIdEEEENS1_IS3_EEE8max_sizeEv, symObjAddr: 0xB5A0, symBinAddr: 0x10000DCC0, symSize: 0x60 }
  - { offsetInCU: 0x1A569, offset: 0x1A569, size: 0x8, addend: 0x0, symName: __ZNKSt3__16vectorINS0_IdNS_9allocatorIdEEEENS1_IS3_EEE20__throw_length_errorB7v160006Ev, symObjAddr: 0xB600, symBinAddr: 0x10000DD20, symSize: 0x20 }
  - { offsetInCU: 0x1A58E, offset: 0x1A58E, size: 0x8, addend: 0x0, symName: __ZNSt3__16vectorINS0_IdNS_9allocatorIdEEEENS1_IS3_EEE7__allocB7v160006Ev, symObjAddr: 0xB660, symBinAddr: 0x10000DD80, symSize: 0x20 }
  - { offsetInCU: 0x1A5B3, offset: 0x1A5B3, size: 0x8, addend: 0x0, symName: __ZNSt3__16vectorINS0_IdNS_9allocatorIdEEEENS1_IS3_EEE9__end_capB7v160006Ev, symObjAddr: 0xB680, symBinAddr: 0x10000DDA0, symSize: 0x20 }
  - { offsetInCU: 0x1A5D8, offset: 0x1A5D8, size: 0x8, addend: 0x0, symName: __ZNKSt3__16vectorINS0_IdNS_9allocatorIdEEEENS1_IS3_EEE14__annotate_newB7v160006Em, symObjAddr: 0xB6A0, symBinAddr: 0x10000DDC0, symSize: 0xA0 }
  - { offsetInCU: 0x1A616, offset: 0x1A616, size: 0x8, addend: 0x0, symName: __ZNSt3__116allocator_traitsINS_9allocatorINS_6vectorIdNS1_IdEEEEEEE8max_sizeB7v160006IS5_vEEmRKS5_, symObjAddr: 0xB740, symBinAddr: 0x10000DE60, symSize: 0x20 }
  - { offsetInCU: 0x1A644, offset: 0x1A644, size: 0x8, addend: 0x0, symName: __ZNKSt3__16vectorINS0_IdNS_9allocatorIdEEEENS1_IS3_EEE7__allocB7v160006Ev, symObjAddr: 0xB760, symBinAddr: 0x10000DE80, symSize: 0x20 }
  - { offsetInCU: 0x1A669, offset: 0x1A669, size: 0x8, addend: 0x0, symName: __ZNKSt3__19allocatorINS_6vectorIdNS0_IdEEEEE8max_sizeB7v160006Ev, symObjAddr: 0xB780, symBinAddr: 0x10000DEA0, symSize: 0x20 }
  - { offsetInCU: 0x1A68E, offset: 0x1A68E, size: 0x8, addend: 0x0, symName: __ZNKSt3__117__compressed_pairIPNS_6vectorIdNS_9allocatorIdEEEENS2_IS4_EEE6secondB7v160006Ev, symObjAddr: 0xB7A0, symBinAddr: 0x10000DEC0, symSize: 0x20 }
  - { offsetInCU: 0x1A6B3, offset: 0x1A6B3, size: 0x8, addend: 0x0, symName: __ZNKSt3__122__compressed_pair_elemINS_9allocatorINS_6vectorIdNS1_IdEEEEEELi1ELb1EE5__getB7v160006Ev, symObjAddr: 0xB7C0, symBinAddr: 0x10000DEE0, symSize: 0x10 }
  - { offsetInCU: 0x1A6D8, offset: 0x1A6D8, size: 0x8, addend: 0x0, symName: __ZNSt3__19allocatorINS_6vectorIdNS0_IdEEEEE8allocateB7v160006Em, symObjAddr: 0xB7D0, symBinAddr: 0x10000DEF0, symSize: 0x50 }
  - { offsetInCU: 0x1A70B, offset: 0x1A70B, size: 0x8, addend: 0x0, symName: __ZNSt3__117__compressed_pairIPNS_6vectorIdNS_9allocatorIdEEEENS2_IS4_EEE6secondB7v160006Ev, symObjAddr: 0xB820, symBinAddr: 0x10000DF40, symSize: 0x20 }
  - { offsetInCU: 0x1A730, offset: 0x1A730, size: 0x8, addend: 0x0, symName: __ZNSt3__122__compressed_pair_elemINS_9allocatorINS_6vectorIdNS1_IdEEEEEELi1ELb1EE5__getB7v160006Ev, symObjAddr: 0xB840, symBinAddr: 0x10000DF60, symSize: 0x10 }
  - { offsetInCU: 0x1A755, offset: 0x1A755, size: 0x8, addend: 0x0, symName: __ZNSt3__117__compressed_pairIPNS_6vectorIdNS_9allocatorIdEEEENS2_IS4_EEE5firstB7v160006Ev, symObjAddr: 0xB850, symBinAddr: 0x10000DF70, symSize: 0x20 }
  - { offsetInCU: 0x1A77A, offset: 0x1A77A, size: 0x8, addend: 0x0, symName: __ZNSt3__122__compressed_pair_elemIPNS_6vectorIdNS_9allocatorIdEEEELi0ELb0EE5__getB7v160006Ev, symObjAddr: 0xB870, symBinAddr: 0x10000DF90, symSize: 0x10 }
  - { offsetInCU: 0x1A79F, offset: 0x1A79F, size: 0x8, addend: 0x0, symName: __ZNKSt3__16vectorINS0_IdNS_9allocatorIdEEEENS1_IS3_EEE31__annotate_contiguous_containerB7v160006EPKvS7_S7_S7_, symObjAddr: 0xB880, symBinAddr: 0x10000DFA0, symSize: 0x20 }
  - { offsetInCU: 0x1A7F0, offset: 0x1A7F0, size: 0x8, addend: 0x0, symName: __ZNKSt3__16vectorINS0_IdNS_9allocatorIdEEEENS1_IS3_EEE4dataB7v160006Ev, symObjAddr: 0xB8A0, symBinAddr: 0x10000DFC0, symSize: 0x20 }
  - { offsetInCU: 0x1A815, offset: 0x1A815, size: 0x8, addend: 0x0, symName: __ZNKSt3__16vectorINS0_IdNS_9allocatorIdEEEENS1_IS3_EEE8capacityB7v160006Ev, symObjAddr: 0xB8C0, symBinAddr: 0x10000DFE0, symSize: 0x40 }
  - { offsetInCU: 0x1A83A, offset: 0x1A83A, size: 0x8, addend: 0x0, symName: __ZNKSt3__16vectorINS0_IdNS_9allocatorIdEEEENS1_IS3_EEE9__end_capB7v160006Ev, symObjAddr: 0xB910, symBinAddr: 0x10000E030, symSize: 0x20 }
  - { offsetInCU: 0x1A85F, offset: 0x1A85F, size: 0x8, addend: 0x0, symName: __ZNKSt3__117__compressed_pairIPNS_6vectorIdNS_9allocatorIdEEEENS2_IS4_EEE5firstB7v160006Ev, symObjAddr: 0xB930, symBinAddr: 0x10000E050, symSize: 0x20 }
  - { offsetInCU: 0x1A884, offset: 0x1A884, size: 0x8, addend: 0x0, symName: __ZNKSt3__122__compressed_pair_elemIPNS_6vectorIdNS_9allocatorIdEEEELi0ELb0EE5__getB7v160006Ev, symObjAddr: 0xB950, symBinAddr: 0x10000E070, symSize: 0x10 }
  - { offsetInCU: 0x1A8C2, offset: 0x1A8C2, size: 0x8, addend: 0x0, symName: __ZNSt3__16vectorINS0_IdNS_9allocatorIdEEEENS1_IS3_EEE21_ConstructTransactionC1B7v160006ERS5_m, symObjAddr: 0xB960, symBinAddr: 0x10000E080, symSize: 0x30 }
  - { offsetInCU: 0x1A909, offset: 0x1A909, size: 0x8, addend: 0x0, symName: __ZNSt3__16vectorINS0_IdNS_9allocatorIdEEEENS1_IS3_EEE21_ConstructTransactionD1B7v160006Ev, symObjAddr: 0xBA90, symBinAddr: 0x10000E1B0, symSize: 0x20 }
  - { offsetInCU: 0x1A932, offset: 0x1A932, size: 0x8, addend: 0x0, symName: __ZNSt3__16vectorINS0_IdNS_9allocatorIdEEEENS1_IS3_EEE21_ConstructTransactionC2B7v160006ERS5_m, symObjAddr: 0xBAB0, symBinAddr: 0x10000E1D0, symSize: 0x40 }
  - { offsetInCU: 0x1A979, offset: 0x1A979, size: 0x8, addend: 0x0, symName: __ZNSt3__129_AllocatorDestroyRangeReverseINS_9allocatorINS_6vectorIdNS1_IdEEEEEEPS4_EC1B7v160006ERS5_RS6_S9_, symObjAddr: 0xBB50, symBinAddr: 0x10000E270, symSize: 0x40 }
  - { offsetInCU: 0x1A9CF, offset: 0x1A9CF, size: 0x8, addend: 0x0, symName: __ZNSt3__116allocator_traitsINS_9allocatorINS_6vectorIdNS1_IdEEEEEEE9constructB7v160006IS4_JRKS4_EvEEvRS5_PT_DpOT0_, symObjAddr: 0xBB90, symBinAddr: 0x10000E2B0, symSize: 0x30 }
  - { offsetInCU: 0x1AA26, offset: 0x1AA26, size: 0x8, addend: 0x0, symName: __ZNSt3__128__exception_guard_exceptionsINS_29_AllocatorDestroyRangeReverseINS_9allocatorINS_6vectorIdNS2_IdEEEEEEPS5_EEE10__completeB7v160006Ev, symObjAddr: 0xBBC0, symBinAddr: 0x10000E2E0, symSize: 0x20 }
  - { offsetInCU: 0x1AA4B, offset: 0x1AA4B, size: 0x8, addend: 0x0, symName: __ZNSt3__128__exception_guard_exceptionsINS_29_AllocatorDestroyRangeReverseINS_9allocatorINS_6vectorIdNS2_IdEEEEEEPS5_EEED1B7v160006Ev, symObjAddr: 0xBBE0, symBinAddr: 0x10000E300, symSize: 0x20 }
  - { offsetInCU: 0x1AA74, offset: 0x1AA74, size: 0x8, addend: 0x0, symName: __ZNSt3__128__exception_guard_exceptionsINS_29_AllocatorDestroyRangeReverseINS_9allocatorINS_6vectorIdNS2_IdEEEEEEPS5_EEEC1B7v160006ES8_, symObjAddr: 0xBC00, symBinAddr: 0x10000E320, symSize: 0x40 }
  - { offsetInCU: 0x1AAAB, offset: 0x1AAAB, size: 0x8, addend: 0x0, symName: __ZNSt3__128__exception_guard_exceptionsINS_29_AllocatorDestroyRangeReverseINS_9allocatorINS_6vectorIdNS2_IdEEEEEEPS5_EEEC2B7v160006ES8_, symObjAddr: 0xBC40, symBinAddr: 0x10000E360, symSize: 0x30 }
  - { offsetInCU: 0x1AAE2, offset: 0x1AAE2, size: 0x8, addend: 0x0, symName: __ZNSt3__129_AllocatorDestroyRangeReverseINS_9allocatorINS_6vectorIdNS1_IdEEEEEEPS4_EC2B7v160006ERS5_RS6_S9_, symObjAddr: 0xBC70, symBinAddr: 0x10000E390, symSize: 0x40 }
  - { offsetInCU: 0x1AB38, offset: 0x1AB38, size: 0x8, addend: 0x0, symName: __ZNSt3__19allocatorINS_6vectorIdNS0_IdEEEEE9constructB7v160006IS3_JRKS3_EEEvPT_DpOT0_, symObjAddr: 0xBCB0, symBinAddr: 0x10000E3D0, symSize: 0x30 }
  - { offsetInCU: 0x1AB8D, offset: 0x1AB8D, size: 0x8, addend: 0x0, symName: __ZNSt3__16vectorIdNS_9allocatorIdEEEC1ERKS3_, symObjAddr: 0xBCE0, symBinAddr: 0x10000E400, symSize: 0x30 }
  - { offsetInCU: 0x1ABC7, offset: 0x1ABC7, size: 0x8, addend: 0x0, symName: __ZNSt3__16vectorIdNS_9allocatorIdEEEC2ERKS3_, symObjAddr: 0xBD10, symBinAddr: 0x10000E430, symSize: 0x110 }
  - { offsetInCU: 0x1AC26, offset: 0x1AC26, size: 0x8, addend: 0x0, symName: __ZNSt3__116allocator_traitsINS_9allocatorIdEEE37select_on_container_copy_constructionB7v160006IS2_vvEES2_RKS2_, symObjAddr: 0xBE20, symBinAddr: 0x10000E540, symSize: 0x10 }
  - { offsetInCU: 0x1AC5A, offset: 0x1AC5A, size: 0x8, addend: 0x0, symName: __ZNSt3__117__compressed_pairIPdNS_9allocatorIdEEEC1B7v160006IDnS3_EEOT_OT0_, symObjAddr: 0xBE30, symBinAddr: 0x10000E550, symSize: 0x30 }
  - { offsetInCU: 0x1ACB0, offset: 0x1ACB0, size: 0x8, addend: 0x0, symName: __ZNSt3__16vectorIdNS_9allocatorIdEEE18__construct_at_endIPdLi0EEEvT_S6_m, symObjAddr: 0xBE60, symBinAddr: 0x10000E580, symSize: 0x90 }
  - { offsetInCU: 0x1AD22, offset: 0x1AD22, size: 0x8, addend: 0x0, symName: __ZNSt3__117__compressed_pairIPdNS_9allocatorIdEEEC2B7v160006IDnS3_EEOT_OT0_, symObjAddr: 0xBEF0, symBinAddr: 0x10000E610, symSize: 0x40 }
  - { offsetInCU: 0x1AD79, offset: 0x1AD79, size: 0x8, addend: 0x0, symName: __ZNSt3__122__compressed_pair_elemINS_9allocatorIdEELi1ELb1EEC2B7v160006IS2_vEEOT_, symObjAddr: 0xBF30, symBinAddr: 0x10000E650, symSize: 0x10 }
  - { offsetInCU: 0x1ADBA, offset: 0x1ADBA, size: 0x8, addend: 0x0, symName: __ZNSt3__129_AllocatorDestroyRangeReverseINS_9allocatorIdEEPdEC1B7v160006ERS2_RS3_S6_, symObjAddr: 0xC0A0, symBinAddr: 0x10000E7C0, symSize: 0x40 }
  - { offsetInCU: 0x1AE10, offset: 0x1AE10, size: 0x8, addend: 0x0, symName: __ZNSt3__116allocator_traitsINS_9allocatorIdEEE9constructB7v160006IdJRdEvEEvRS2_PT_DpOT0_, symObjAddr: 0xC0E0, symBinAddr: 0x10000E800, symSize: 0x30 }
  - { offsetInCU: 0x1AE67, offset: 0x1AE67, size: 0x8, addend: 0x0, symName: __ZNSt3__128__exception_guard_exceptionsINS_29_AllocatorDestroyRangeReverseINS_9allocatorIdEEPdEEE10__completeB7v160006Ev, symObjAddr: 0xC110, symBinAddr: 0x10000E830, symSize: 0x20 }
  - { offsetInCU: 0x1AE8C, offset: 0x1AE8C, size: 0x8, addend: 0x0, symName: __ZNSt3__128__exception_guard_exceptionsINS_29_AllocatorDestroyRangeReverseINS_9allocatorIdEEPdEEED1B7v160006Ev, symObjAddr: 0xC130, symBinAddr: 0x10000E850, symSize: 0x20 }
  - { offsetInCU: 0x1AEB5, offset: 0x1AEB5, size: 0x8, addend: 0x0, symName: __ZNSt3__128__exception_guard_exceptionsINS_29_AllocatorDestroyRangeReverseINS_9allocatorIdEEPdEEEC1B7v160006ES5_, symObjAddr: 0xC150, symBinAddr: 0x10000E870, symSize: 0x40 }
  - { offsetInCU: 0x1AEEC, offset: 0x1AEEC, size: 0x8, addend: 0x0, symName: __ZNSt3__128__exception_guard_exceptionsINS_29_AllocatorDestroyRangeReverseINS_9allocatorIdEEPdEEEC2B7v160006ES5_, symObjAddr: 0xC190, symBinAddr: 0x10000E8B0, symSize: 0x30 }
  - { offsetInCU: 0x1AF23, offset: 0x1AF23, size: 0x8, addend: 0x0, symName: __ZNSt3__129_AllocatorDestroyRangeReverseINS_9allocatorIdEEPdEC2B7v160006ERS2_RS3_S6_, symObjAddr: 0xC1C0, symBinAddr: 0x10000E8E0, symSize: 0x40 }
  - { offsetInCU: 0x1AF79, offset: 0x1AF79, size: 0x8, addend: 0x0, symName: __ZNSt3__19allocatorIdE9constructB7v160006IdJRdEEEvPT_DpOT0_, symObjAddr: 0xC200, symBinAddr: 0x10000E920, symSize: 0x30 }
  - { offsetInCU: 0x1AFCE, offset: 0x1AFCE, size: 0x8, addend: 0x0, symName: __ZNSt3__128__exception_guard_exceptionsINS_29_AllocatorDestroyRangeReverseINS_9allocatorIdEEPdEEED2B7v160006Ev, symObjAddr: 0xC230, symBinAddr: 0x10000E950, symSize: 0x40 }
  - { offsetInCU: 0x1AFF7, offset: 0x1AFF7, size: 0x8, addend: 0x0, symName: __ZNKSt3__129_AllocatorDestroyRangeReverseINS_9allocatorIdEEPdEclB7v160006Ev, symObjAddr: 0xC270, symBinAddr: 0x10000E990, symSize: 0x60 }
  - { offsetInCU: 0x1B01C, offset: 0x1B01C, size: 0x8, addend: 0x0, symName: __ZNSt3__116reverse_iteratorIPdEC1B7v160006ES1_, symObjAddr: 0xC340, symBinAddr: 0x10000EA60, symSize: 0x30 }
  - { offsetInCU: 0x1B053, offset: 0x1B053, size: 0x8, addend: 0x0, symName: __ZNSt3__116reverse_iteratorIPdEppB7v160006Ev, symObjAddr: 0xC3D0, symBinAddr: 0x10000EAF0, symSize: 0x20 }
  - { offsetInCU: 0x1B078, offset: 0x1B078, size: 0x8, addend: 0x0, symName: __ZNKSt3__116reverse_iteratorIPdE4baseB7v160006Ev, symObjAddr: 0xC3F0, symBinAddr: 0x10000EB10, symSize: 0x20 }
  - { offsetInCU: 0x1B0A2, offset: 0x1B0A2, size: 0x8, addend: 0x0, symName: __ZNSt3__119__to_address_helperINS_16reverse_iteratorIPdEEvE6__callB7v160006ERKS3_, symObjAddr: 0xC410, symBinAddr: 0x10000EB30, symSize: 0x40 }
  - { offsetInCU: 0x1B0C5, offset: 0x1B0C5, size: 0x8, addend: 0x0, symName: __ZNKSt3__116reverse_iteratorIPdEptB7v160006Ev, symObjAddr: 0xC450, symBinAddr: 0x10000EB70, symSize: 0x20 }
  - { offsetInCU: 0x1B0EA, offset: 0x1B0EA, size: 0x8, addend: 0x0, symName: __ZNKSt3__116reverse_iteratorIPdEdeB7v160006Ev, symObjAddr: 0xC470, symBinAddr: 0x10000EB90, symSize: 0x30 }
  - { offsetInCU: 0x1B11D, offset: 0x1B11D, size: 0x8, addend: 0x0, symName: __ZNSt3__116reverse_iteratorIPdEC2B7v160006ES1_, symObjAddr: 0xC4A0, symBinAddr: 0x10000EBC0, symSize: 0x30 }
  - { offsetInCU: 0x1B154, offset: 0x1B154, size: 0x8, addend: 0x0, symName: __ZNSt3__128__exception_guard_exceptionsINS_29_AllocatorDestroyRangeReverseINS_9allocatorINS_6vectorIdNS2_IdEEEEEEPS5_EEED2B7v160006Ev, symObjAddr: 0xC4D0, symBinAddr: 0x10000EBF0, symSize: 0x40 }
  - { offsetInCU: 0x1B17D, offset: 0x1B17D, size: 0x8, addend: 0x0, symName: __ZNKSt3__129_AllocatorDestroyRangeReverseINS_9allocatorINS_6vectorIdNS1_IdEEEEEEPS4_EclB7v160006Ev, symObjAddr: 0xC510, symBinAddr: 0x10000EC30, symSize: 0x60 }
  - { offsetInCU: 0x1B1A2, offset: 0x1B1A2, size: 0x8, addend: 0x0, symName: __ZNSt3__116reverse_iteratorIPNS_6vectorIdNS_9allocatorIdEEEEEC1B7v160006ES5_, symObjAddr: 0xC5E0, symBinAddr: 0x10000ED00, symSize: 0x30 }
  - { offsetInCU: 0x1B1D9, offset: 0x1B1D9, size: 0x8, addend: 0x0, symName: __ZNSt3__116allocator_traitsINS_9allocatorINS_6vectorIdNS1_IdEEEEEEE7destroyB7v160006IS4_vEEvRS5_PT_, symObjAddr: 0xC650, symBinAddr: 0x10000ED70, symSize: 0x30 }
  - { offsetInCU: 0x1B216, offset: 0x1B216, size: 0x8, addend: 0x0, symName: __ZNSt3__116reverse_iteratorIPNS_6vectorIdNS_9allocatorIdEEEEEppB7v160006Ev, symObjAddr: 0xC6A0, symBinAddr: 0x10000EDC0, symSize: 0x20 }
  - { offsetInCU: 0x1B23B, offset: 0x1B23B, size: 0x8, addend: 0x0, symName: __ZNKSt3__116reverse_iteratorIPNS_6vectorIdNS_9allocatorIdEEEEE4baseB7v160006Ev, symObjAddr: 0xC6C0, symBinAddr: 0x10000EDE0, symSize: 0x20 }
  - { offsetInCU: 0x1B260, offset: 0x1B260, size: 0x8, addend: 0x0, symName: __ZNSt3__19allocatorINS_6vectorIdNS0_IdEEEEE7destroyB7v160006EPS3_, symObjAddr: 0xC6E0, symBinAddr: 0x10000EE00, symSize: 0x20 }
  - { offsetInCU: 0x1B298, offset: 0x1B298, size: 0x8, addend: 0x0, symName: __ZNSt3__119__to_address_helperINS_16reverse_iteratorIPNS_6vectorIdNS_9allocatorIdEEEEEEvE6__callB7v160006ERKS7_, symObjAddr: 0xC700, symBinAddr: 0x10000EE20, symSize: 0x40 }
  - { offsetInCU: 0x1B2BB, offset: 0x1B2BB, size: 0x8, addend: 0x0, symName: __ZNKSt3__116reverse_iteratorIPNS_6vectorIdNS_9allocatorIdEEEEEptB7v160006Ev, symObjAddr: 0xC740, symBinAddr: 0x10000EE60, symSize: 0x20 }
  - { offsetInCU: 0x1B2E0, offset: 0x1B2E0, size: 0x8, addend: 0x0, symName: __ZNKSt3__116reverse_iteratorIPNS_6vectorIdNS_9allocatorIdEEEEEdeB7v160006Ev, symObjAddr: 0xC760, symBinAddr: 0x10000EE80, symSize: 0x30 }
  - { offsetInCU: 0x1B313, offset: 0x1B313, size: 0x8, addend: 0x0, symName: __ZNSt3__116reverse_iteratorIPNS_6vectorIdNS_9allocatorIdEEEEEC2B7v160006ES5_, symObjAddr: 0xC790, symBinAddr: 0x10000EEB0, symSize: 0x30 }
  - { offsetInCU: 0x1B34A, offset: 0x1B34A, size: 0x8, addend: 0x0, symName: __ZNSt3__16vectorINS0_IdNS_9allocatorIdEEEENS1_IS3_EEE21_ConstructTransactionD2B7v160006Ev, symObjAddr: 0xC7C0, symBinAddr: 0x10000EEE0, symSize: 0x20 }
  - { offsetInCU: 0x1B373, offset: 0x1B373, size: 0x8, addend: 0x0, symName: __ZNSt3__128__exception_guard_exceptionsINS_6vectorINS1_IdNS_9allocatorIdEEEENS2_IS4_EEE16__destroy_vectorEED2B7v160006Ev, symObjAddr: 0xC7E0, symBinAddr: 0x10000EF00, symSize: 0x40 }
  - { offsetInCU: 0x1B39C, offset: 0x1B39C, size: 0x8, addend: 0x0, symName: __ZNSt3__16vectorINS0_IdNS_9allocatorIdEEEENS1_IS3_EEE16__destroy_vectorclB7v160006Ev, symObjAddr: 0xC820, symBinAddr: 0x10000EF40, symSize: 0x90 }
  - { offsetInCU: 0x1B3C1, offset: 0x1B3C1, size: 0x8, addend: 0x0, symName: __ZNKSt3__16vectorINS0_IdNS_9allocatorIdEEEENS1_IS3_EEE17__annotate_deleteB7v160006Ev, symObjAddr: 0xC8B0, symBinAddr: 0x10000EFD0, symSize: 0xB0 }
  - { offsetInCU: 0x1B3E6, offset: 0x1B3E6, size: 0x8, addend: 0x0, symName: __ZNSt3__16vectorINS0_IdNS_9allocatorIdEEEENS1_IS3_EEE7__clearB7v160006Ev, symObjAddr: 0xC970, symBinAddr: 0x10000F090, symSize: 0x20 }
  - { offsetInCU: 0x1B40B, offset: 0x1B40B, size: 0x8, addend: 0x0, symName: __ZNSt3__116allocator_traitsINS_9allocatorINS_6vectorIdNS1_IdEEEEEEE10deallocateB7v160006ERS5_PS4_m, symObjAddr: 0xC990, symBinAddr: 0x10000F0B0, symSize: 0x30 }
  - { offsetInCU: 0x1B44D, offset: 0x1B44D, size: 0x8, addend: 0x0, symName: __ZNKSt3__16vectorINS0_IdNS_9allocatorIdEEEENS1_IS3_EEE4sizeB7v160006Ev, symObjAddr: 0xC9C0, symBinAddr: 0x10000F0E0, symSize: 0x30 }
  - { offsetInCU: 0x1B472, offset: 0x1B472, size: 0x8, addend: 0x0, symName: __ZNSt3__16vectorINS0_IdNS_9allocatorIdEEEENS1_IS3_EEE22__base_destruct_at_endB7v160006EPS3_, symObjAddr: 0xC9F0, symBinAddr: 0x10000F110, symSize: 0x80 }
  - { offsetInCU: 0x1B4B5, offset: 0x1B4B5, size: 0x8, addend: 0x0, symName: __ZNSt3__19allocatorINS_6vectorIdNS0_IdEEEEE10deallocateB7v160006EPS3_m, symObjAddr: 0xCA70, symBinAddr: 0x10000F190, symSize: 0x50 }
  - { offsetInCU: 0x1B4F6, offset: 0x1B4F6, size: 0x8, addend: 0x0, symName: __ZNSt3__16vectorINS0_IdNS_9allocatorIdEEEENS1_IS3_EEED2B7v160006Ev, symObjAddr: 0xCAC0, symBinAddr: 0x10000F1E0, symSize: 0x3A }
  - { offsetInCU: 0x26, offset: 0x1B7BC, size: 0x8, addend: 0x0, symName: _gladLoadGL, symObjAddr: 0x0, symBinAddr: 0x10000F220, symSize: 0x40 }
  - { offsetInCU: 0x40, offset: 0x1B7D6, size: 0x8, addend: 0x0, symName: _GLVersion, symObjAddr: 0x17AC8, symBinAddr: 0x100018020, symSize: 0x0 }
  - { offsetInCU: 0x80, offset: 0x1B816, size: 0x8, addend: 0x0, symName: _GLAD_GL_VERSION_1_0, symObjAddr: 0x17AD0, symBinAddr: 0x100018028, symSize: 0x0 }
  - { offsetInCU: 0x97, offset: 0x1B82D, size: 0x8, addend: 0x0, symName: _GLAD_GL_VERSION_1_1, symObjAddr: 0x17AD4, symBinAddr: 0x10001802C, symSize: 0x0 }
  - { offsetInCU: 0xAE, offset: 0x1B844, size: 0x8, addend: 0x0, symName: _GLAD_GL_VERSION_1_2, symObjAddr: 0x17AD8, symBinAddr: 0x100018030, symSize: 0x0 }
  - { offsetInCU: 0xC5, offset: 0x1B85B, size: 0x8, addend: 0x0, symName: _GLAD_GL_VERSION_1_3, symObjAddr: 0x17ADC, symBinAddr: 0x100018034, symSize: 0x0 }
  - { offsetInCU: 0xDC, offset: 0x1B872, size: 0x8, addend: 0x0, symName: _GLAD_GL_VERSION_1_4, symObjAddr: 0x17AE0, symBinAddr: 0x100018038, symSize: 0x0 }
  - { offsetInCU: 0xF3, offset: 0x1B889, size: 0x8, addend: 0x0, symName: _GLAD_GL_VERSION_1_5, symObjAddr: 0x17AE4, symBinAddr: 0x10001803C, symSize: 0x0 }
  - { offsetInCU: 0x10A, offset: 0x1B8A0, size: 0x8, addend: 0x0, symName: _GLAD_GL_VERSION_2_0, symObjAddr: 0x17AE8, symBinAddr: 0x100018040, symSize: 0x0 }
  - { offsetInCU: 0x121, offset: 0x1B8B7, size: 0x8, addend: 0x0, symName: _GLAD_GL_VERSION_2_1, symObjAddr: 0x17AEC, symBinAddr: 0x100018044, symSize: 0x0 }
  - { offsetInCU: 0x138, offset: 0x1B8CE, size: 0x8, addend: 0x0, symName: _GLAD_GL_VERSION_3_0, symObjAddr: 0x17AF0, symBinAddr: 0x100018048, symSize: 0x0 }
  - { offsetInCU: 0x14F, offset: 0x1B8E5, size: 0x8, addend: 0x0, symName: _GLAD_GL_VERSION_3_1, symObjAddr: 0x17AF4, symBinAddr: 0x10001804C, symSize: 0x0 }
  - { offsetInCU: 0x166, offset: 0x1B8FC, size: 0x8, addend: 0x0, symName: _GLAD_GL_VERSION_3_2, symObjAddr: 0x17AF8, symBinAddr: 0x100018050, symSize: 0x0 }
  - { offsetInCU: 0x17D, offset: 0x1B913, size: 0x8, addend: 0x0, symName: _GLAD_GL_VERSION_3_3, symObjAddr: 0x17AFC, symBinAddr: 0x100018054, symSize: 0x0 }
  - { offsetInCU: 0x194, offset: 0x1B92A, size: 0x8, addend: 0x0, symName: _glad_glActiveTexture, symObjAddr: 0x17B00, symBinAddr: 0x100018058, symSize: 0x0 }
  - { offsetInCU: 0x1D5, offset: 0x1B96B, size: 0x8, addend: 0x0, symName: _glad_glAttachShader, symObjAddr: 0x17B08, symBinAddr: 0x100018060, symSize: 0x0 }
  - { offsetInCU: 0x214, offset: 0x1B9AA, size: 0x8, addend: 0x0, symName: _glad_glBeginConditionalRender, symObjAddr: 0x17B10, symBinAddr: 0x100018068, symSize: 0x0 }
  - { offsetInCU: 0x248, offset: 0x1B9DE, size: 0x8, addend: 0x0, symName: _glad_glBeginQuery, symObjAddr: 0x17B18, symBinAddr: 0x100018070, symSize: 0x0 }
  - { offsetInCU: 0x27C, offset: 0x1BA12, size: 0x8, addend: 0x0, symName: _glad_glBeginTransformFeedback, symObjAddr: 0x17B20, symBinAddr: 0x100018078, symSize: 0x0 }
  - { offsetInCU: 0x29F, offset: 0x1BA35, size: 0x8, addend: 0x0, symName: _glad_glBindAttribLocation, symObjAddr: 0x17B28, symBinAddr: 0x100018080, symSize: 0x0 }
  - { offsetInCU: 0x2F4, offset: 0x1BA8A, size: 0x8, addend: 0x0, symName: _glad_glBindBuffer, symObjAddr: 0x17B30, symBinAddr: 0x100018088, symSize: 0x0 }
  - { offsetInCU: 0x317, offset: 0x1BAAD, size: 0x8, addend: 0x0, symName: _glad_glBindBufferBase, symObjAddr: 0x17B38, symBinAddr: 0x100018090, symSize: 0x0 }
  - { offsetInCU: 0x350, offset: 0x1BAE6, size: 0x8, addend: 0x0, symName: _glad_glBindBufferRange, symObjAddr: 0x17B40, symBinAddr: 0x100018098, symSize: 0x0 }
  - { offsetInCU: 0x3C8, offset: 0x1BB5E, size: 0x8, addend: 0x0, symName: _glad_glBindFragDataLocation, symObjAddr: 0x17B48, symBinAddr: 0x1000180A0, symSize: 0x0 }
  - { offsetInCU: 0x3EB, offset: 0x1BB81, size: 0x8, addend: 0x0, symName: _glad_glBindFragDataLocationIndexed, symObjAddr: 0x17B50, symBinAddr: 0x1000180A8, symSize: 0x0 }
  - { offsetInCU: 0x429, offset: 0x1BBBF, size: 0x8, addend: 0x0, symName: _glad_glBindFramebuffer, symObjAddr: 0x17B58, symBinAddr: 0x1000180B0, symSize: 0x0 }
  - { offsetInCU: 0x44C, offset: 0x1BBE2, size: 0x8, addend: 0x0, symName: _glad_glBindRenderbuffer, symObjAddr: 0x17B60, symBinAddr: 0x1000180B8, symSize: 0x0 }
  - { offsetInCU: 0x46F, offset: 0x1BC05, size: 0x8, addend: 0x0, symName: _glad_glBindSampler, symObjAddr: 0x17B68, symBinAddr: 0x1000180C0, symSize: 0x0 }
  - { offsetInCU: 0x492, offset: 0x1BC28, size: 0x8, addend: 0x0, symName: _glad_glBindTexture, symObjAddr: 0x17B70, symBinAddr: 0x1000180C8, symSize: 0x0 }
  - { offsetInCU: 0x4B5, offset: 0x1BC4B, size: 0x8, addend: 0x0, symName: _glad_glBindVertexArray, symObjAddr: 0x17B78, symBinAddr: 0x1000180D0, symSize: 0x0 }
  - { offsetInCU: 0x4E4, offset: 0x1BC7A, size: 0x8, addend: 0x0, symName: _glad_glBlendColor, symObjAddr: 0x17B80, symBinAddr: 0x1000180D8, symSize: 0x0 }
  - { offsetInCU: 0x540, offset: 0x1BCD6, size: 0x8, addend: 0x0, symName: _glad_glBlendEquation, symObjAddr: 0x17B88, symBinAddr: 0x1000180E0, symSize: 0x0 }
  - { offsetInCU: 0x563, offset: 0x1BCF9, size: 0x8, addend: 0x0, symName: _glad_glBlendEquationSeparate, symObjAddr: 0x17B90, symBinAddr: 0x1000180E8, symSize: 0x0 }
  - { offsetInCU: 0x597, offset: 0x1BD2D, size: 0x8, addend: 0x0, symName: _glad_glBlendFunc, symObjAddr: 0x17B98, symBinAddr: 0x1000180F0, symSize: 0x0 }
  - { offsetInCU: 0x5BA, offset: 0x1BD50, size: 0x8, addend: 0x0, symName: _glad_glBlendFuncSeparate, symObjAddr: 0x17BA0, symBinAddr: 0x1000180F8, symSize: 0x0 }
  - { offsetInCU: 0x5F8, offset: 0x1BD8E, size: 0x8, addend: 0x0, symName: _glad_glBlitFramebuffer, symObjAddr: 0x17BA8, symBinAddr: 0x100018100, symSize: 0x0 }
  - { offsetInCU: 0x66A, offset: 0x1BE00, size: 0x8, addend: 0x0, symName: _glad_glBufferData, symObjAddr: 0x17BB0, symBinAddr: 0x100018108, symSize: 0x0 }
  - { offsetInCU: 0x6AE, offset: 0x1BE44, size: 0x8, addend: 0x0, symName: _glad_glBufferSubData, symObjAddr: 0x17BB8, symBinAddr: 0x100018110, symSize: 0x0 }
  - { offsetInCU: 0x6EC, offset: 0x1BE82, size: 0x8, addend: 0x0, symName: _glad_glCheckFramebufferStatus, symObjAddr: 0x17BC0, symBinAddr: 0x100018118, symSize: 0x0 }
  - { offsetInCU: 0x71F, offset: 0x1BEB5, size: 0x8, addend: 0x0, symName: _glad_glClampColor, symObjAddr: 0x17BC8, symBinAddr: 0x100018120, symSize: 0x0 }
  - { offsetInCU: 0x742, offset: 0x1BED8, size: 0x8, addend: 0x0, symName: _glad_glClear, symObjAddr: 0x17BD0, symBinAddr: 0x100018128, symSize: 0x0 }
  - { offsetInCU: 0x771, offset: 0x1BF07, size: 0x8, addend: 0x0, symName: _glad_glClearBufferfi, symObjAddr: 0x17BD8, symBinAddr: 0x100018130, symSize: 0x0 }
  - { offsetInCU: 0x7AF, offset: 0x1BF45, size: 0x8, addend: 0x0, symName: _glad_glClearBufferfv, symObjAddr: 0x17BE0, symBinAddr: 0x100018138, symSize: 0x0 }
  - { offsetInCU: 0x7F2, offset: 0x1BF88, size: 0x8, addend: 0x0, symName: _glad_glClearBufferiv, symObjAddr: 0x17BE8, symBinAddr: 0x100018140, symSize: 0x0 }
  - { offsetInCU: 0x835, offset: 0x1BFCB, size: 0x8, addend: 0x0, symName: _glad_glClearBufferuiv, symObjAddr: 0x17BF0, symBinAddr: 0x100018148, symSize: 0x0 }
  - { offsetInCU: 0x878, offset: 0x1C00E, size: 0x8, addend: 0x0, symName: _glad_glClearColor, symObjAddr: 0x17BF8, symBinAddr: 0x100018150, symSize: 0x0 }
  - { offsetInCU: 0x89B, offset: 0x1C031, size: 0x8, addend: 0x0, symName: _glad_glClearDepth, symObjAddr: 0x17C00, symBinAddr: 0x100018158, symSize: 0x0 }
  - { offsetInCU: 0x8DC, offset: 0x1C072, size: 0x8, addend: 0x0, symName: _glad_glClearStencil, symObjAddr: 0x17C08, symBinAddr: 0x100018160, symSize: 0x0 }
  - { offsetInCU: 0x90B, offset: 0x1C0A1, size: 0x8, addend: 0x0, symName: _glad_glClientWaitSync, symObjAddr: 0x17C10, symBinAddr: 0x100018168, symSize: 0x0 }
  - { offsetInCU: 0x97A, offset: 0x1C110, size: 0x8, addend: 0x0, symName: _glad_glColorMask, symObjAddr: 0x17C18, symBinAddr: 0x100018170, symSize: 0x0 }
  - { offsetInCU: 0x9CA, offset: 0x1C160, size: 0x8, addend: 0x0, symName: _glad_glColorMaski, symObjAddr: 0x17C20, symBinAddr: 0x100018178, symSize: 0x0 }
  - { offsetInCU: 0xA0D, offset: 0x1C1A3, size: 0x8, addend: 0x0, symName: _glad_glColorP3ui, symObjAddr: 0x17C28, symBinAddr: 0x100018180, symSize: 0x0 }
  - { offsetInCU: 0xA30, offset: 0x1C1C6, size: 0x8, addend: 0x0, symName: _glad_glColorP3uiv, symObjAddr: 0x17C30, symBinAddr: 0x100018188, symSize: 0x0 }
  - { offsetInCU: 0xA64, offset: 0x1C1FA, size: 0x8, addend: 0x0, symName: _glad_glColorP4ui, symObjAddr: 0x17C38, symBinAddr: 0x100018190, symSize: 0x0 }
  - { offsetInCU: 0xA87, offset: 0x1C21D, size: 0x8, addend: 0x0, symName: _glad_glColorP4uiv, symObjAddr: 0x17C40, symBinAddr: 0x100018198, symSize: 0x0 }
  - { offsetInCU: 0xAAA, offset: 0x1C240, size: 0x8, addend: 0x0, symName: _glad_glCompileShader, symObjAddr: 0x17C48, symBinAddr: 0x1000181A0, symSize: 0x0 }
  - { offsetInCU: 0xACD, offset: 0x1C263, size: 0x8, addend: 0x0, symName: _glad_glCompressedTexImage1D, symObjAddr: 0x17C50, symBinAddr: 0x1000181A8, symSize: 0x0 }
  - { offsetInCU: 0xB25, offset: 0x1C2BB, size: 0x8, addend: 0x0, symName: _glad_glCompressedTexImage2D, symObjAddr: 0x17C58, symBinAddr: 0x1000181B0, symSize: 0x0 }
  - { offsetInCU: 0xB77, offset: 0x1C30D, size: 0x8, addend: 0x0, symName: _glad_glCompressedTexImage3D, symObjAddr: 0x17C60, symBinAddr: 0x1000181B8, symSize: 0x0 }
  - { offsetInCU: 0xBCE, offset: 0x1C364, size: 0x8, addend: 0x0, symName: _glad_glCompressedTexSubImage1D, symObjAddr: 0x17C68, symBinAddr: 0x1000181C0, symSize: 0x0 }
  - { offsetInCU: 0xC1B, offset: 0x1C3B1, size: 0x8, addend: 0x0, symName: _glad_glCompressedTexSubImage2D, symObjAddr: 0x17C70, symBinAddr: 0x1000181C8, symSize: 0x0 }
  - { offsetInCU: 0xC72, offset: 0x1C408, size: 0x8, addend: 0x0, symName: _glad_glCompressedTexSubImage3D, symObjAddr: 0x17C78, symBinAddr: 0x1000181D0, symSize: 0x0 }
  - { offsetInCU: 0xCD3, offset: 0x1C469, size: 0x8, addend: 0x0, symName: _glad_glCopyBufferSubData, symObjAddr: 0x17C80, symBinAddr: 0x1000181D8, symSize: 0x0 }
  - { offsetInCU: 0xD16, offset: 0x1C4AC, size: 0x8, addend: 0x0, symName: _glad_glCopyTexImage1D, symObjAddr: 0x17C88, symBinAddr: 0x1000181E0, symSize: 0x0 }
  - { offsetInCU: 0xD63, offset: 0x1C4F9, size: 0x8, addend: 0x0, symName: _glad_glCopyTexImage2D, symObjAddr: 0x17C90, symBinAddr: 0x1000181E8, symSize: 0x0 }
  - { offsetInCU: 0xDB5, offset: 0x1C54B, size: 0x8, addend: 0x0, symName: _glad_glCopyTexSubImage1D, symObjAddr: 0x17C98, symBinAddr: 0x1000181F0, symSize: 0x0 }
  - { offsetInCU: 0xDFD, offset: 0x1C593, size: 0x8, addend: 0x0, symName: _glad_glCopyTexSubImage2D, symObjAddr: 0x17CA0, symBinAddr: 0x1000181F8, symSize: 0x0 }
  - { offsetInCU: 0xE4F, offset: 0x1C5E5, size: 0x8, addend: 0x0, symName: _glad_glCopyTexSubImage3D, symObjAddr: 0x17CA8, symBinAddr: 0x100018200, symSize: 0x0 }
  - { offsetInCU: 0xEA6, offset: 0x1C63C, size: 0x8, addend: 0x0, symName: _glad_glCreateProgram, symObjAddr: 0x17CB0, symBinAddr: 0x100018208, symSize: 0x0 }
  - { offsetInCU: 0xED3, offset: 0x1C669, size: 0x8, addend: 0x0, symName: _glad_glCreateShader, symObjAddr: 0x17CB8, symBinAddr: 0x100018210, symSize: 0x0 }
  - { offsetInCU: 0xF06, offset: 0x1C69C, size: 0x8, addend: 0x0, symName: _glad_glCullFace, symObjAddr: 0x17CC0, symBinAddr: 0x100018218, symSize: 0x0 }
  - { offsetInCU: 0xF29, offset: 0x1C6BF, size: 0x8, addend: 0x0, symName: _glad_glDeleteBuffers, symObjAddr: 0x17CC8, symBinAddr: 0x100018220, symSize: 0x0 }
  - { offsetInCU: 0xF5D, offset: 0x1C6F3, size: 0x8, addend: 0x0, symName: _glad_glDeleteFramebuffers, symObjAddr: 0x17CD0, symBinAddr: 0x100018228, symSize: 0x0 }
  - { offsetInCU: 0xF80, offset: 0x1C716, size: 0x8, addend: 0x0, symName: _glad_glDeleteProgram, symObjAddr: 0x17CD8, symBinAddr: 0x100018230, symSize: 0x0 }
  - { offsetInCU: 0xFA3, offset: 0x1C739, size: 0x8, addend: 0x0, symName: _glad_glDeleteQueries, symObjAddr: 0x17CE0, symBinAddr: 0x100018238, symSize: 0x0 }
  - { offsetInCU: 0xFC6, offset: 0x1C75C, size: 0x8, addend: 0x0, symName: _glad_glDeleteRenderbuffers, symObjAddr: 0x17CE8, symBinAddr: 0x100018240, symSize: 0x0 }
  - { offsetInCU: 0xFE9, offset: 0x1C77F, size: 0x8, addend: 0x0, symName: _glad_glDeleteSamplers, symObjAddr: 0x17CF0, symBinAddr: 0x100018248, symSize: 0x0 }
  - { offsetInCU: 0x100C, offset: 0x1C7A2, size: 0x8, addend: 0x0, symName: _glad_glDeleteShader, symObjAddr: 0x17CF8, symBinAddr: 0x100018250, symSize: 0x0 }
  - { offsetInCU: 0x102F, offset: 0x1C7C5, size: 0x8, addend: 0x0, symName: _glad_glDeleteSync, symObjAddr: 0x17D00, symBinAddr: 0x100018258, symSize: 0x0 }
  - { offsetInCU: 0x105E, offset: 0x1C7F4, size: 0x8, addend: 0x0, symName: _glad_glDeleteTextures, symObjAddr: 0x17D08, symBinAddr: 0x100018260, symSize: 0x0 }
  - { offsetInCU: 0x1081, offset: 0x1C817, size: 0x8, addend: 0x0, symName: _glad_glDeleteVertexArrays, symObjAddr: 0x17D10, symBinAddr: 0x100018268, symSize: 0x0 }
  - { offsetInCU: 0x10A4, offset: 0x1C83A, size: 0x8, addend: 0x0, symName: _glad_glDepthFunc, symObjAddr: 0x17D18, symBinAddr: 0x100018270, symSize: 0x0 }
  - { offsetInCU: 0x10C7, offset: 0x1C85D, size: 0x8, addend: 0x0, symName: _glad_glDepthMask, symObjAddr: 0x17D20, symBinAddr: 0x100018278, symSize: 0x0 }
  - { offsetInCU: 0x10F6, offset: 0x1C88C, size: 0x8, addend: 0x0, symName: _glad_glDepthRange, symObjAddr: 0x17D28, symBinAddr: 0x100018280, symSize: 0x0 }
  - { offsetInCU: 0x112A, offset: 0x1C8C0, size: 0x8, addend: 0x0, symName: _glad_glDetachShader, symObjAddr: 0x17D30, symBinAddr: 0x100018288, symSize: 0x0 }
  - { offsetInCU: 0x114D, offset: 0x1C8E3, size: 0x8, addend: 0x0, symName: _glad_glDisable, symObjAddr: 0x17D38, symBinAddr: 0x100018290, symSize: 0x0 }
  - { offsetInCU: 0x1170, offset: 0x1C906, size: 0x8, addend: 0x0, symName: _glad_glDisableVertexAttribArray, symObjAddr: 0x17D40, symBinAddr: 0x100018298, symSize: 0x0 }
  - { offsetInCU: 0x1193, offset: 0x1C929, size: 0x8, addend: 0x0, symName: _glad_glDisablei, symObjAddr: 0x17D48, symBinAddr: 0x1000182A0, symSize: 0x0 }
  - { offsetInCU: 0x11B6, offset: 0x1C94C, size: 0x8, addend: 0x0, symName: _glad_glDrawArrays, symObjAddr: 0x17D50, symBinAddr: 0x1000182A8, symSize: 0x0 }
  - { offsetInCU: 0x11EF, offset: 0x1C985, size: 0x8, addend: 0x0, symName: _glad_glDrawArraysInstanced, symObjAddr: 0x17D58, symBinAddr: 0x1000182B0, symSize: 0x0 }
  - { offsetInCU: 0x122D, offset: 0x1C9C3, size: 0x8, addend: 0x0, symName: _glad_glDrawBuffer, symObjAddr: 0x17D60, symBinAddr: 0x1000182B8, symSize: 0x0 }
  - { offsetInCU: 0x1250, offset: 0x1C9E6, size: 0x8, addend: 0x0, symName: _glad_glDrawBuffers, symObjAddr: 0x17D68, symBinAddr: 0x1000182C0, symSize: 0x0 }
  - { offsetInCU: 0x128E, offset: 0x1CA24, size: 0x8, addend: 0x0, symName: _glad_glDrawElements, symObjAddr: 0x17D70, symBinAddr: 0x1000182C8, symSize: 0x0 }
  - { offsetInCU: 0x12CC, offset: 0x1CA62, size: 0x8, addend: 0x0, symName: _glad_glDrawElementsBaseVertex, symObjAddr: 0x17D78, symBinAddr: 0x1000182D0, symSize: 0x0 }
  - { offsetInCU: 0x130F, offset: 0x1CAA5, size: 0x8, addend: 0x0, symName: _glad_glDrawElementsInstanced, symObjAddr: 0x17D80, symBinAddr: 0x1000182D8, symSize: 0x0 }
  - { offsetInCU: 0x1352, offset: 0x1CAE8, size: 0x8, addend: 0x0, symName: _glad_glDrawElementsInstancedBaseVertex, symObjAddr: 0x17D88, symBinAddr: 0x1000182E0, symSize: 0x0 }
  - { offsetInCU: 0x139A, offset: 0x1CB30, size: 0x8, addend: 0x0, symName: _glad_glDrawRangeElements, symObjAddr: 0x17D90, symBinAddr: 0x1000182E8, symSize: 0x0 }
  - { offsetInCU: 0x13E2, offset: 0x1CB78, size: 0x8, addend: 0x0, symName: _glad_glDrawRangeElementsBaseVertex, symObjAddr: 0x17D98, symBinAddr: 0x1000182F0, symSize: 0x0 }
  - { offsetInCU: 0x142F, offset: 0x1CBC5, size: 0x8, addend: 0x0, symName: _glad_glEnable, symObjAddr: 0x17DA0, symBinAddr: 0x1000182F8, symSize: 0x0 }
  - { offsetInCU: 0x1452, offset: 0x1CBE8, size: 0x8, addend: 0x0, symName: _glad_glEnableVertexAttribArray, symObjAddr: 0x17DA8, symBinAddr: 0x100018300, symSize: 0x0 }
  - { offsetInCU: 0x1475, offset: 0x1CC0B, size: 0x8, addend: 0x0, symName: _glad_glEnablei, symObjAddr: 0x17DB0, symBinAddr: 0x100018308, symSize: 0x0 }
  - { offsetInCU: 0x1498, offset: 0x1CC2E, size: 0x8, addend: 0x0, symName: _glad_glEndConditionalRender, symObjAddr: 0x17DB8, symBinAddr: 0x100018310, symSize: 0x0 }
  - { offsetInCU: 0x14C2, offset: 0x1CC58, size: 0x8, addend: 0x0, symName: _glad_glEndQuery, symObjAddr: 0x17DC0, symBinAddr: 0x100018318, symSize: 0x0 }
  - { offsetInCU: 0x14E5, offset: 0x1CC7B, size: 0x8, addend: 0x0, symName: _glad_glEndTransformFeedback, symObjAddr: 0x17DC8, symBinAddr: 0x100018320, symSize: 0x0 }
  - { offsetInCU: 0x1508, offset: 0x1CC9E, size: 0x8, addend: 0x0, symName: _glad_glFenceSync, symObjAddr: 0x17DD0, symBinAddr: 0x100018328, symSize: 0x0 }
  - { offsetInCU: 0x1540, offset: 0x1CCD6, size: 0x8, addend: 0x0, symName: _glad_glFinish, symObjAddr: 0x17DD8, symBinAddr: 0x100018330, symSize: 0x0 }
  - { offsetInCU: 0x1563, offset: 0x1CCF9, size: 0x8, addend: 0x0, symName: _glad_glFlush, symObjAddr: 0x17DE0, symBinAddr: 0x100018338, symSize: 0x0 }
  - { offsetInCU: 0x1586, offset: 0x1CD1C, size: 0x8, addend: 0x0, symName: _glad_glFlushMappedBufferRange, symObjAddr: 0x17DE8, symBinAddr: 0x100018340, symSize: 0x0 }
  - { offsetInCU: 0x15BF, offset: 0x1CD55, size: 0x8, addend: 0x0, symName: _glad_glFramebufferRenderbuffer, symObjAddr: 0x17DF0, symBinAddr: 0x100018348, symSize: 0x0 }
  - { offsetInCU: 0x15FD, offset: 0x1CD93, size: 0x8, addend: 0x0, symName: _glad_glFramebufferTexture, symObjAddr: 0x17DF8, symBinAddr: 0x100018350, symSize: 0x0 }
  - { offsetInCU: 0x163B, offset: 0x1CDD1, size: 0x8, addend: 0x0, symName: _glad_glFramebufferTexture1D, symObjAddr: 0x17E00, symBinAddr: 0x100018358, symSize: 0x0 }
  - { offsetInCU: 0x167E, offset: 0x1CE14, size: 0x8, addend: 0x0, symName: _glad_glFramebufferTexture2D, symObjAddr: 0x17E08, symBinAddr: 0x100018360, symSize: 0x0 }
  - { offsetInCU: 0x16A1, offset: 0x1CE37, size: 0x8, addend: 0x0, symName: _glad_glFramebufferTexture3D, symObjAddr: 0x17E10, symBinAddr: 0x100018368, symSize: 0x0 }
  - { offsetInCU: 0x16E9, offset: 0x1CE7F, size: 0x8, addend: 0x0, symName: _glad_glFramebufferTextureLayer, symObjAddr: 0x17E18, symBinAddr: 0x100018370, symSize: 0x0 }
  - { offsetInCU: 0x172C, offset: 0x1CEC2, size: 0x8, addend: 0x0, symName: _glad_glFrontFace, symObjAddr: 0x17E20, symBinAddr: 0x100018378, symSize: 0x0 }
  - { offsetInCU: 0x174F, offset: 0x1CEE5, size: 0x8, addend: 0x0, symName: _glad_glGenBuffers, symObjAddr: 0x17E28, symBinAddr: 0x100018380, symSize: 0x0 }
  - { offsetInCU: 0x1788, offset: 0x1CF1E, size: 0x8, addend: 0x0, symName: _glad_glGenFramebuffers, symObjAddr: 0x17E30, symBinAddr: 0x100018388, symSize: 0x0 }
  - { offsetInCU: 0x17AB, offset: 0x1CF41, size: 0x8, addend: 0x0, symName: _glad_glGenQueries, symObjAddr: 0x17E38, symBinAddr: 0x100018390, symSize: 0x0 }
  - { offsetInCU: 0x17CE, offset: 0x1CF64, size: 0x8, addend: 0x0, symName: _glad_glGenRenderbuffers, symObjAddr: 0x17E40, symBinAddr: 0x100018398, symSize: 0x0 }
  - { offsetInCU: 0x17F1, offset: 0x1CF87, size: 0x8, addend: 0x0, symName: _glad_glGenSamplers, symObjAddr: 0x17E48, symBinAddr: 0x1000183A0, symSize: 0x0 }
  - { offsetInCU: 0x1814, offset: 0x1CFAA, size: 0x8, addend: 0x0, symName: _glad_glGenTextures, symObjAddr: 0x17E50, symBinAddr: 0x1000183A8, symSize: 0x0 }
  - { offsetInCU: 0x1837, offset: 0x1CFCD, size: 0x8, addend: 0x0, symName: _glad_glGenVertexArrays, symObjAddr: 0x17E58, symBinAddr: 0x1000183B0, symSize: 0x0 }
  - { offsetInCU: 0x185A, offset: 0x1CFF0, size: 0x8, addend: 0x0, symName: _glad_glGenerateMipmap, symObjAddr: 0x17E60, symBinAddr: 0x1000183B8, symSize: 0x0 }
  - { offsetInCU: 0x187D, offset: 0x1D013, size: 0x8, addend: 0x0, symName: _glad_glGetActiveAttrib, symObjAddr: 0x17E68, symBinAddr: 0x1000183C0, symSize: 0x0 }
  - { offsetInCU: 0x18DE, offset: 0x1D074, size: 0x8, addend: 0x0, symName: _glad_glGetActiveUniform, symObjAddr: 0x17E70, symBinAddr: 0x1000183C8, symSize: 0x0 }
  - { offsetInCU: 0x1901, offset: 0x1D097, size: 0x8, addend: 0x0, symName: _glad_glGetActiveUniformBlockName, symObjAddr: 0x17E78, symBinAddr: 0x1000183D0, symSize: 0x0 }
  - { offsetInCU: 0x1944, offset: 0x1D0DA, size: 0x8, addend: 0x0, symName: _glad_glGetActiveUniformBlockiv, symObjAddr: 0x17E80, symBinAddr: 0x1000183D8, symSize: 0x0 }
  - { offsetInCU: 0x1982, offset: 0x1D118, size: 0x8, addend: 0x0, symName: _glad_glGetActiveUniformName, symObjAddr: 0x17E88, symBinAddr: 0x1000183E0, symSize: 0x0 }
  - { offsetInCU: 0x19A5, offset: 0x1D13B, size: 0x8, addend: 0x0, symName: _glad_glGetActiveUniformsiv, symObjAddr: 0x17E90, symBinAddr: 0x1000183E8, symSize: 0x0 }
  - { offsetInCU: 0x19E8, offset: 0x1D17E, size: 0x8, addend: 0x0, symName: _glad_glGetAttachedShaders, symObjAddr: 0x17E98, symBinAddr: 0x1000183F0, symSize: 0x0 }
  - { offsetInCU: 0x1A26, offset: 0x1D1BC, size: 0x8, addend: 0x0, symName: _glad_glGetAttribLocation, symObjAddr: 0x17EA0, symBinAddr: 0x1000183F8, symSize: 0x0 }
  - { offsetInCU: 0x1A5E, offset: 0x1D1F4, size: 0x8, addend: 0x0, symName: _glad_glGetBooleani_v, symObjAddr: 0x17EA8, symBinAddr: 0x100018400, symSize: 0x0 }
  - { offsetInCU: 0x1A9C, offset: 0x1D232, size: 0x8, addend: 0x0, symName: _glad_glGetBooleanv, symObjAddr: 0x17EB0, symBinAddr: 0x100018408, symSize: 0x0 }
  - { offsetInCU: 0x1AD0, offset: 0x1D266, size: 0x8, addend: 0x0, symName: _glad_glGetBufferParameteri64v, symObjAddr: 0x17EB8, symBinAddr: 0x100018410, symSize: 0x0 }
  - { offsetInCU: 0x1B2B, offset: 0x1D2C1, size: 0x8, addend: 0x0, symName: _glad_glGetBufferParameteriv, symObjAddr: 0x17EC0, symBinAddr: 0x100018418, symSize: 0x0 }
  - { offsetInCU: 0x1B64, offset: 0x1D2FA, size: 0x8, addend: 0x0, symName: _glad_glGetBufferPointerv, symObjAddr: 0x17EC8, symBinAddr: 0x100018420, symSize: 0x0 }
  - { offsetInCU: 0x1BA3, offset: 0x1D339, size: 0x8, addend: 0x0, symName: _glad_glGetBufferSubData, symObjAddr: 0x17ED0, symBinAddr: 0x100018428, symSize: 0x0 }
  - { offsetInCU: 0x1BE1, offset: 0x1D377, size: 0x8, addend: 0x0, symName: _glad_glGetCompressedTexImage, symObjAddr: 0x17ED8, symBinAddr: 0x100018430, symSize: 0x0 }
  - { offsetInCU: 0x1C1A, offset: 0x1D3B0, size: 0x8, addend: 0x0, symName: _glad_glGetDoublev, symObjAddr: 0x17EE0, symBinAddr: 0x100018438, symSize: 0x0 }
  - { offsetInCU: 0x1C53, offset: 0x1D3E9, size: 0x8, addend: 0x0, symName: _glad_glGetError, symObjAddr: 0x17EE8, symBinAddr: 0x100018440, symSize: 0x0 }
  - { offsetInCU: 0x1C80, offset: 0x1D416, size: 0x8, addend: 0x0, symName: _glad_glGetFloatv, symObjAddr: 0x17EF0, symBinAddr: 0x100018448, symSize: 0x0 }
  - { offsetInCU: 0x1CB9, offset: 0x1D44F, size: 0x8, addend: 0x0, symName: _glad_glGetFragDataIndex, symObjAddr: 0x17EF8, symBinAddr: 0x100018450, symSize: 0x0 }
  - { offsetInCU: 0x1CDC, offset: 0x1D472, size: 0x8, addend: 0x0, symName: _glad_glGetFragDataLocation, symObjAddr: 0x17F00, symBinAddr: 0x100018458, symSize: 0x0 }
  - { offsetInCU: 0x1CFF, offset: 0x1D495, size: 0x8, addend: 0x0, symName: _glad_glGetFramebufferAttachmentParameteriv, symObjAddr: 0x17F08, symBinAddr: 0x100018460, symSize: 0x0 }
  - { offsetInCU: 0x1D3D, offset: 0x1D4D3, size: 0x8, addend: 0x0, symName: _glad_glGetInteger64i_v, symObjAddr: 0x17F10, symBinAddr: 0x100018468, symSize: 0x0 }
  - { offsetInCU: 0x1D76, offset: 0x1D50C, size: 0x8, addend: 0x0, symName: _glad_glGetInteger64v, symObjAddr: 0x17F18, symBinAddr: 0x100018470, symSize: 0x0 }
  - { offsetInCU: 0x1DAA, offset: 0x1D540, size: 0x8, addend: 0x0, symName: _glad_glGetIntegeri_v, symObjAddr: 0x17F20, symBinAddr: 0x100018478, symSize: 0x0 }
  - { offsetInCU: 0x1DE3, offset: 0x1D579, size: 0x8, addend: 0x0, symName: _glad_glGetIntegerv, symObjAddr: 0x17F28, symBinAddr: 0x100018480, symSize: 0x0 }
  - { offsetInCU: 0x1E17, offset: 0x1D5AD, size: 0x8, addend: 0x0, symName: _glad_glGetMultisamplefv, symObjAddr: 0x17F30, symBinAddr: 0x100018488, symSize: 0x0 }
  - { offsetInCU: 0x1E50, offset: 0x1D5E6, size: 0x8, addend: 0x0, symName: _glad_glGetProgramInfoLog, symObjAddr: 0x17F38, symBinAddr: 0x100018490, symSize: 0x0 }
  - { offsetInCU: 0x1E8E, offset: 0x1D624, size: 0x8, addend: 0x0, symName: _glad_glGetProgramiv, symObjAddr: 0x17F40, symBinAddr: 0x100018498, symSize: 0x0 }
  - { offsetInCU: 0x1EC7, offset: 0x1D65D, size: 0x8, addend: 0x0, symName: _glad_glGetQueryObjecti64v, symObjAddr: 0x17F48, symBinAddr: 0x1000184A0, symSize: 0x0 }
  - { offsetInCU: 0x1F00, offset: 0x1D696, size: 0x8, addend: 0x0, symName: _glad_glGetQueryObjectiv, symObjAddr: 0x17F50, symBinAddr: 0x1000184A8, symSize: 0x0 }
  - { offsetInCU: 0x1F23, offset: 0x1D6B9, size: 0x8, addend: 0x0, symName: _glad_glGetQueryObjectui64v, symObjAddr: 0x17F58, symBinAddr: 0x1000184B0, symSize: 0x0 }
  - { offsetInCU: 0x1F61, offset: 0x1D6F7, size: 0x8, addend: 0x0, symName: _glad_glGetQueryObjectuiv, symObjAddr: 0x17F60, symBinAddr: 0x1000184B8, symSize: 0x0 }
  - { offsetInCU: 0x1F9A, offset: 0x1D730, size: 0x8, addend: 0x0, symName: _glad_glGetQueryiv, symObjAddr: 0x17F68, symBinAddr: 0x1000184C0, symSize: 0x0 }
  - { offsetInCU: 0x1FBD, offset: 0x1D753, size: 0x8, addend: 0x0, symName: _glad_glGetRenderbufferParameteriv, symObjAddr: 0x17F70, symBinAddr: 0x1000184C8, symSize: 0x0 }
  - { offsetInCU: 0x1FE0, offset: 0x1D776, size: 0x8, addend: 0x0, symName: _glad_glGetSamplerParameterIiv, symObjAddr: 0x17F78, symBinAddr: 0x1000184D0, symSize: 0x0 }
  - { offsetInCU: 0x2003, offset: 0x1D799, size: 0x8, addend: 0x0, symName: _glad_glGetSamplerParameterIuiv, symObjAddr: 0x17F80, symBinAddr: 0x1000184D8, symSize: 0x0 }
  - { offsetInCU: 0x2026, offset: 0x1D7BC, size: 0x8, addend: 0x0, symName: _glad_glGetSamplerParameterfv, symObjAddr: 0x17F88, symBinAddr: 0x1000184E0, symSize: 0x0 }
  - { offsetInCU: 0x205F, offset: 0x1D7F5, size: 0x8, addend: 0x0, symName: _glad_glGetSamplerParameteriv, symObjAddr: 0x17F90, symBinAddr: 0x1000184E8, symSize: 0x0 }
  - { offsetInCU: 0x2082, offset: 0x1D818, size: 0x8, addend: 0x0, symName: _glad_glGetShaderInfoLog, symObjAddr: 0x17F98, symBinAddr: 0x1000184F0, symSize: 0x0 }
  - { offsetInCU: 0x20A5, offset: 0x1D83B, size: 0x8, addend: 0x0, symName: _glad_glGetShaderSource, symObjAddr: 0x17FA0, symBinAddr: 0x1000184F8, symSize: 0x0 }
  - { offsetInCU: 0x20C8, offset: 0x1D85E, size: 0x8, addend: 0x0, symName: _glad_glGetShaderiv, symObjAddr: 0x17FA8, symBinAddr: 0x100018500, symSize: 0x0 }
  - { offsetInCU: 0x20EB, offset: 0x1D881, size: 0x8, addend: 0x0, symName: _glad_glGetString, symObjAddr: 0x17FB0, symBinAddr: 0x100018508, symSize: 0x0 }
  - { offsetInCU: 0x213E, offset: 0x1D8D4, size: 0x8, addend: 0x0, symName: _glad_glGetStringi, symObjAddr: 0x17FB8, symBinAddr: 0x100018510, symSize: 0x0 }
  - { offsetInCU: 0x2176, offset: 0x1D90C, size: 0x8, addend: 0x0, symName: _glad_glGetSynciv, symObjAddr: 0x17FC0, symBinAddr: 0x100018518, symSize: 0x0 }
  - { offsetInCU: 0x21B9, offset: 0x1D94F, size: 0x8, addend: 0x0, symName: _glad_glGetTexImage, symObjAddr: 0x17FC8, symBinAddr: 0x100018520, symSize: 0x0 }
  - { offsetInCU: 0x21FC, offset: 0x1D992, size: 0x8, addend: 0x0, symName: _glad_glGetTexLevelParameterfv, symObjAddr: 0x17FD0, symBinAddr: 0x100018528, symSize: 0x0 }
  - { offsetInCU: 0x223A, offset: 0x1D9D0, size: 0x8, addend: 0x0, symName: _glad_glGetTexLevelParameteriv, symObjAddr: 0x17FD8, symBinAddr: 0x100018530, symSize: 0x0 }
  - { offsetInCU: 0x2278, offset: 0x1DA0E, size: 0x8, addend: 0x0, symName: _glad_glGetTexParameterIiv, symObjAddr: 0x17FE0, symBinAddr: 0x100018538, symSize: 0x0 }
  - { offsetInCU: 0x229B, offset: 0x1DA31, size: 0x8, addend: 0x0, symName: _glad_glGetTexParameterIuiv, symObjAddr: 0x17FE8, symBinAddr: 0x100018540, symSize: 0x0 }
  - { offsetInCU: 0x22D4, offset: 0x1DA6A, size: 0x8, addend: 0x0, symName: _glad_glGetTexParameterfv, symObjAddr: 0x17FF0, symBinAddr: 0x100018548, symSize: 0x0 }
  - { offsetInCU: 0x230D, offset: 0x1DAA3, size: 0x8, addend: 0x0, symName: _glad_glGetTexParameteriv, symObjAddr: 0x17FF8, symBinAddr: 0x100018550, symSize: 0x0 }
  - { offsetInCU: 0x2330, offset: 0x1DAC6, size: 0x8, addend: 0x0, symName: _glad_glGetTransformFeedbackVarying, symObjAddr: 0x18000, symBinAddr: 0x100018558, symSize: 0x0 }
  - { offsetInCU: 0x237D, offset: 0x1DB13, size: 0x8, addend: 0x0, symName: _glad_glGetUniformBlockIndex, symObjAddr: 0x18008, symBinAddr: 0x100018560, symSize: 0x0 }
  - { offsetInCU: 0x23B5, offset: 0x1DB4B, size: 0x8, addend: 0x0, symName: _glad_glGetUniformIndices, symObjAddr: 0x18010, symBinAddr: 0x100018568, symSize: 0x0 }
  - { offsetInCU: 0x23FD, offset: 0x1DB93, size: 0x8, addend: 0x0, symName: _glad_glGetUniformLocation, symObjAddr: 0x18018, symBinAddr: 0x100018570, symSize: 0x0 }
  - { offsetInCU: 0x2420, offset: 0x1DBB6, size: 0x8, addend: 0x0, symName: _glad_glGetUniformfv, symObjAddr: 0x18020, symBinAddr: 0x100018578, symSize: 0x0 }
  - { offsetInCU: 0x2459, offset: 0x1DBEF, size: 0x8, addend: 0x0, symName: _glad_glGetUniformiv, symObjAddr: 0x18028, symBinAddr: 0x100018580, symSize: 0x0 }
  - { offsetInCU: 0x2492, offset: 0x1DC28, size: 0x8, addend: 0x0, symName: _glad_glGetUniformuiv, symObjAddr: 0x18030, symBinAddr: 0x100018588, symSize: 0x0 }
  - { offsetInCU: 0x24CB, offset: 0x1DC61, size: 0x8, addend: 0x0, symName: _glad_glGetVertexAttribIiv, symObjAddr: 0x18038, symBinAddr: 0x100018590, symSize: 0x0 }
  - { offsetInCU: 0x24EE, offset: 0x1DC84, size: 0x8, addend: 0x0, symName: _glad_glGetVertexAttribIuiv, symObjAddr: 0x18040, symBinAddr: 0x100018598, symSize: 0x0 }
  - { offsetInCU: 0x2511, offset: 0x1DCA7, size: 0x8, addend: 0x0, symName: _glad_glGetVertexAttribPointerv, symObjAddr: 0x18048, symBinAddr: 0x1000185A0, symSize: 0x0 }
  - { offsetInCU: 0x254A, offset: 0x1DCE0, size: 0x8, addend: 0x0, symName: _glad_glGetVertexAttribdv, symObjAddr: 0x18050, symBinAddr: 0x1000185A8, symSize: 0x0 }
  - { offsetInCU: 0x2583, offset: 0x1DD19, size: 0x8, addend: 0x0, symName: _glad_glGetVertexAttribfv, symObjAddr: 0x18058, symBinAddr: 0x1000185B0, symSize: 0x0 }
  - { offsetInCU: 0x25A6, offset: 0x1DD3C, size: 0x8, addend: 0x0, symName: _glad_glGetVertexAttribiv, symObjAddr: 0x18060, symBinAddr: 0x1000185B8, symSize: 0x0 }
  - { offsetInCU: 0x25C9, offset: 0x1DD5F, size: 0x8, addend: 0x0, symName: _glad_glHint, symObjAddr: 0x18068, symBinAddr: 0x1000185C0, symSize: 0x0 }
  - { offsetInCU: 0x25EC, offset: 0x1DD82, size: 0x8, addend: 0x0, symName: _glad_glIsBuffer, symObjAddr: 0x18070, symBinAddr: 0x1000185C8, symSize: 0x0 }
  - { offsetInCU: 0x261F, offset: 0x1DDB5, size: 0x8, addend: 0x0, symName: _glad_glIsEnabled, symObjAddr: 0x18078, symBinAddr: 0x1000185D0, symSize: 0x0 }
  - { offsetInCU: 0x2652, offset: 0x1DDE8, size: 0x8, addend: 0x0, symName: _glad_glIsEnabledi, symObjAddr: 0x18080, symBinAddr: 0x1000185D8, symSize: 0x0 }
  - { offsetInCU: 0x268A, offset: 0x1DE20, size: 0x8, addend: 0x0, symName: _glad_glIsFramebuffer, symObjAddr: 0x18088, symBinAddr: 0x1000185E0, symSize: 0x0 }
  - { offsetInCU: 0x26AD, offset: 0x1DE43, size: 0x8, addend: 0x0, symName: _glad_glIsProgram, symObjAddr: 0x18090, symBinAddr: 0x1000185E8, symSize: 0x0 }
  - { offsetInCU: 0x26D0, offset: 0x1DE66, size: 0x8, addend: 0x0, symName: _glad_glIsQuery, symObjAddr: 0x18098, symBinAddr: 0x1000185F0, symSize: 0x0 }
  - { offsetInCU: 0x26F3, offset: 0x1DE89, size: 0x8, addend: 0x0, symName: _glad_glIsRenderbuffer, symObjAddr: 0x180A0, symBinAddr: 0x1000185F8, symSize: 0x0 }
  - { offsetInCU: 0x2716, offset: 0x1DEAC, size: 0x8, addend: 0x0, symName: _glad_glIsSampler, symObjAddr: 0x180A8, symBinAddr: 0x100018600, symSize: 0x0 }
  - { offsetInCU: 0x2739, offset: 0x1DECF, size: 0x8, addend: 0x0, symName: _glad_glIsShader, symObjAddr: 0x180B0, symBinAddr: 0x100018608, symSize: 0x0 }
  - { offsetInCU: 0x275C, offset: 0x1DEF2, size: 0x8, addend: 0x0, symName: _glad_glIsSync, symObjAddr: 0x180B8, symBinAddr: 0x100018610, symSize: 0x0 }
  - { offsetInCU: 0x278F, offset: 0x1DF25, size: 0x8, addend: 0x0, symName: _glad_glIsTexture, symObjAddr: 0x180C0, symBinAddr: 0x100018618, symSize: 0x0 }
  - { offsetInCU: 0x27B2, offset: 0x1DF48, size: 0x8, addend: 0x0, symName: _glad_glIsVertexArray, symObjAddr: 0x180C8, symBinAddr: 0x100018620, symSize: 0x0 }
  - { offsetInCU: 0x27D5, offset: 0x1DF6B, size: 0x8, addend: 0x0, symName: _glad_glLineWidth, symObjAddr: 0x180D0, symBinAddr: 0x100018628, symSize: 0x0 }
  - { offsetInCU: 0x2804, offset: 0x1DF9A, size: 0x8, addend: 0x0, symName: _glad_glLinkProgram, symObjAddr: 0x180D8, symBinAddr: 0x100018630, symSize: 0x0 }
  - { offsetInCU: 0x2827, offset: 0x1DFBD, size: 0x8, addend: 0x0, symName: _glad_glLogicOp, symObjAddr: 0x180E0, symBinAddr: 0x100018638, symSize: 0x0 }
  - { offsetInCU: 0x284A, offset: 0x1DFE0, size: 0x8, addend: 0x0, symName: _glad_glMapBuffer, symObjAddr: 0x180E8, symBinAddr: 0x100018640, symSize: 0x0 }
  - { offsetInCU: 0x2882, offset: 0x1E018, size: 0x8, addend: 0x0, symName: _glad_glMapBufferRange, symObjAddr: 0x180F0, symBinAddr: 0x100018648, symSize: 0x0 }
  - { offsetInCU: 0x28C4, offset: 0x1E05A, size: 0x8, addend: 0x0, symName: _glad_glMultiDrawArrays, symObjAddr: 0x180F8, symBinAddr: 0x100018650, symSize: 0x0 }
  - { offsetInCU: 0x290C, offset: 0x1E0A2, size: 0x8, addend: 0x0, symName: _glad_glMultiDrawElements, symObjAddr: 0x18100, symBinAddr: 0x100018658, symSize: 0x0 }
  - { offsetInCU: 0x2959, offset: 0x1E0EF, size: 0x8, addend: 0x0, symName: _glad_glMultiDrawElementsBaseVertex, symObjAddr: 0x18108, symBinAddr: 0x100018660, symSize: 0x0 }
  - { offsetInCU: 0x29A1, offset: 0x1E137, size: 0x8, addend: 0x0, symName: _glad_glMultiTexCoordP1ui, symObjAddr: 0x18110, symBinAddr: 0x100018668, symSize: 0x0 }
  - { offsetInCU: 0x29DA, offset: 0x1E170, size: 0x8, addend: 0x0, symName: _glad_glMultiTexCoordP1uiv, symObjAddr: 0x18118, symBinAddr: 0x100018670, symSize: 0x0 }
  - { offsetInCU: 0x2A13, offset: 0x1E1A9, size: 0x8, addend: 0x0, symName: _glad_glMultiTexCoordP2ui, symObjAddr: 0x18120, symBinAddr: 0x100018678, symSize: 0x0 }
  - { offsetInCU: 0x2A36, offset: 0x1E1CC, size: 0x8, addend: 0x0, symName: _glad_glMultiTexCoordP2uiv, symObjAddr: 0x18128, symBinAddr: 0x100018680, symSize: 0x0 }
  - { offsetInCU: 0x2A59, offset: 0x1E1EF, size: 0x8, addend: 0x0, symName: _glad_glMultiTexCoordP3ui, symObjAddr: 0x18130, symBinAddr: 0x100018688, symSize: 0x0 }
  - { offsetInCU: 0x2A7C, offset: 0x1E212, size: 0x8, addend: 0x0, symName: _glad_glMultiTexCoordP3uiv, symObjAddr: 0x18138, symBinAddr: 0x100018690, symSize: 0x0 }
  - { offsetInCU: 0x2A9F, offset: 0x1E235, size: 0x8, addend: 0x0, symName: _glad_glMultiTexCoordP4ui, symObjAddr: 0x18140, symBinAddr: 0x100018698, symSize: 0x0 }
  - { offsetInCU: 0x2AC2, offset: 0x1E258, size: 0x8, addend: 0x0, symName: _glad_glMultiTexCoordP4uiv, symObjAddr: 0x18148, symBinAddr: 0x1000186A0, symSize: 0x0 }
  - { offsetInCU: 0x2AE5, offset: 0x1E27B, size: 0x8, addend: 0x0, symName: _glad_glNormalP3ui, symObjAddr: 0x18150, symBinAddr: 0x1000186A8, symSize: 0x0 }
  - { offsetInCU: 0x2B08, offset: 0x1E29E, size: 0x8, addend: 0x0, symName: _glad_glNormalP3uiv, symObjAddr: 0x18158, symBinAddr: 0x1000186B0, symSize: 0x0 }
  - { offsetInCU: 0x2B2B, offset: 0x1E2C1, size: 0x8, addend: 0x0, symName: _glad_glPixelStoref, symObjAddr: 0x18160, symBinAddr: 0x1000186B8, symSize: 0x0 }
  - { offsetInCU: 0x2B5F, offset: 0x1E2F5, size: 0x8, addend: 0x0, symName: _glad_glPixelStorei, symObjAddr: 0x18168, symBinAddr: 0x1000186C0, symSize: 0x0 }
  - { offsetInCU: 0x2B93, offset: 0x1E329, size: 0x8, addend: 0x0, symName: _glad_glPointParameterf, symObjAddr: 0x18170, symBinAddr: 0x1000186C8, symSize: 0x0 }
  - { offsetInCU: 0x2BB6, offset: 0x1E34C, size: 0x8, addend: 0x0, symName: _glad_glPointParameterfv, symObjAddr: 0x18178, symBinAddr: 0x1000186D0, symSize: 0x0 }
  - { offsetInCU: 0x2BEA, offset: 0x1E380, size: 0x8, addend: 0x0, symName: _glad_glPointParameteri, symObjAddr: 0x18180, symBinAddr: 0x1000186D8, symSize: 0x0 }
  - { offsetInCU: 0x2C0D, offset: 0x1E3A3, size: 0x8, addend: 0x0, symName: _glad_glPointParameteriv, symObjAddr: 0x18188, symBinAddr: 0x1000186E0, symSize: 0x0 }
  - { offsetInCU: 0x2C41, offset: 0x1E3D7, size: 0x8, addend: 0x0, symName: _glad_glPointSize, symObjAddr: 0x18190, symBinAddr: 0x1000186E8, symSize: 0x0 }
  - { offsetInCU: 0x2C64, offset: 0x1E3FA, size: 0x8, addend: 0x0, symName: _glad_glPolygonMode, symObjAddr: 0x18198, symBinAddr: 0x1000186F0, symSize: 0x0 }
  - { offsetInCU: 0x2C87, offset: 0x1E41D, size: 0x8, addend: 0x0, symName: _glad_glPolygonOffset, symObjAddr: 0x181A0, symBinAddr: 0x1000186F8, symSize: 0x0 }
  - { offsetInCU: 0x2CBB, offset: 0x1E451, size: 0x8, addend: 0x0, symName: _glad_glPrimitiveRestartIndex, symObjAddr: 0x181A8, symBinAddr: 0x100018700, symSize: 0x0 }
  - { offsetInCU: 0x2CDE, offset: 0x1E474, size: 0x8, addend: 0x0, symName: _glad_glProvokingVertex, symObjAddr: 0x181B0, symBinAddr: 0x100018708, symSize: 0x0 }
  - { offsetInCU: 0x2D01, offset: 0x1E497, size: 0x8, addend: 0x0, symName: _glad_glQueryCounter, symObjAddr: 0x181B8, symBinAddr: 0x100018710, symSize: 0x0 }
  - { offsetInCU: 0x2D24, offset: 0x1E4BA, size: 0x8, addend: 0x0, symName: _glad_glReadBuffer, symObjAddr: 0x181C0, symBinAddr: 0x100018718, symSize: 0x0 }
  - { offsetInCU: 0x2D47, offset: 0x1E4DD, size: 0x8, addend: 0x0, symName: _glad_glReadPixels, symObjAddr: 0x181C8, symBinAddr: 0x100018720, symSize: 0x0 }
  - { offsetInCU: 0x2D94, offset: 0x1E52A, size: 0x8, addend: 0x0, symName: _glad_glRenderbufferStorage, symObjAddr: 0x181D0, symBinAddr: 0x100018728, symSize: 0x0 }
  - { offsetInCU: 0x2DD2, offset: 0x1E568, size: 0x8, addend: 0x0, symName: _glad_glRenderbufferStorageMultisample, symObjAddr: 0x181D8, symBinAddr: 0x100018730, symSize: 0x0 }
  - { offsetInCU: 0x2E15, offset: 0x1E5AB, size: 0x8, addend: 0x0, symName: _glad_glSampleCoverage, symObjAddr: 0x181E0, symBinAddr: 0x100018738, symSize: 0x0 }
  - { offsetInCU: 0x2E49, offset: 0x1E5DF, size: 0x8, addend: 0x0, symName: _glad_glSampleMaski, symObjAddr: 0x181E8, symBinAddr: 0x100018740, symSize: 0x0 }
  - { offsetInCU: 0x2E7D, offset: 0x1E613, size: 0x8, addend: 0x0, symName: _glad_glSamplerParameterIiv, symObjAddr: 0x181F0, symBinAddr: 0x100018748, symSize: 0x0 }
  - { offsetInCU: 0x2EB6, offset: 0x1E64C, size: 0x8, addend: 0x0, symName: _glad_glSamplerParameterIuiv, symObjAddr: 0x181F8, symBinAddr: 0x100018750, symSize: 0x0 }
  - { offsetInCU: 0x2EEF, offset: 0x1E685, size: 0x8, addend: 0x0, symName: _glad_glSamplerParameterf, symObjAddr: 0x18200, symBinAddr: 0x100018758, symSize: 0x0 }
  - { offsetInCU: 0x2F28, offset: 0x1E6BE, size: 0x8, addend: 0x0, symName: _glad_glSamplerParameterfv, symObjAddr: 0x18208, symBinAddr: 0x100018760, symSize: 0x0 }
  - { offsetInCU: 0x2F61, offset: 0x1E6F7, size: 0x8, addend: 0x0, symName: _glad_glSamplerParameteri, symObjAddr: 0x18210, symBinAddr: 0x100018768, symSize: 0x0 }
  - { offsetInCU: 0x2F9A, offset: 0x1E730, size: 0x8, addend: 0x0, symName: _glad_glSamplerParameteriv, symObjAddr: 0x18218, symBinAddr: 0x100018770, symSize: 0x0 }
  - { offsetInCU: 0x2FBD, offset: 0x1E753, size: 0x8, addend: 0x0, symName: _glad_glScissor, symObjAddr: 0x18220, symBinAddr: 0x100018778, symSize: 0x0 }
  - { offsetInCU: 0x2FFB, offset: 0x1E791, size: 0x8, addend: 0x0, symName: _glad_glSecondaryColorP3ui, symObjAddr: 0x18228, symBinAddr: 0x100018780, symSize: 0x0 }
  - { offsetInCU: 0x301E, offset: 0x1E7B4, size: 0x8, addend: 0x0, symName: _glad_glSecondaryColorP3uiv, symObjAddr: 0x18230, symBinAddr: 0x100018788, symSize: 0x0 }
  - { offsetInCU: 0x3041, offset: 0x1E7D7, size: 0x8, addend: 0x0, symName: _glad_glShaderSource, symObjAddr: 0x18238, symBinAddr: 0x100018790, symSize: 0x0 }
  - { offsetInCU: 0x307F, offset: 0x1E815, size: 0x8, addend: 0x0, symName: _glad_glStencilFunc, symObjAddr: 0x18240, symBinAddr: 0x100018798, symSize: 0x0 }
  - { offsetInCU: 0x30B8, offset: 0x1E84E, size: 0x8, addend: 0x0, symName: _glad_glStencilFuncSeparate, symObjAddr: 0x18248, symBinAddr: 0x1000187A0, symSize: 0x0 }
  - { offsetInCU: 0x30F6, offset: 0x1E88C, size: 0x8, addend: 0x0, symName: _glad_glStencilMask, symObjAddr: 0x18250, symBinAddr: 0x1000187A8, symSize: 0x0 }
  - { offsetInCU: 0x3119, offset: 0x1E8AF, size: 0x8, addend: 0x0, symName: _glad_glStencilMaskSeparate, symObjAddr: 0x18258, symBinAddr: 0x1000187B0, symSize: 0x0 }
  - { offsetInCU: 0x313C, offset: 0x1E8D2, size: 0x8, addend: 0x0, symName: _glad_glStencilOp, symObjAddr: 0x18260, symBinAddr: 0x1000187B8, symSize: 0x0 }
  - { offsetInCU: 0x3175, offset: 0x1E90B, size: 0x8, addend: 0x0, symName: _glad_glStencilOpSeparate, symObjAddr: 0x18268, symBinAddr: 0x1000187C0, symSize: 0x0 }
  - { offsetInCU: 0x3198, offset: 0x1E92E, size: 0x8, addend: 0x0, symName: _glad_glTexBuffer, symObjAddr: 0x18270, symBinAddr: 0x1000187C8, symSize: 0x0 }
  - { offsetInCU: 0x31BB, offset: 0x1E951, size: 0x8, addend: 0x0, symName: _glad_glTexCoordP1ui, symObjAddr: 0x18278, symBinAddr: 0x1000187D0, symSize: 0x0 }
  - { offsetInCU: 0x31DE, offset: 0x1E974, size: 0x8, addend: 0x0, symName: _glad_glTexCoordP1uiv, symObjAddr: 0x18280, symBinAddr: 0x1000187D8, symSize: 0x0 }
  - { offsetInCU: 0x3201, offset: 0x1E997, size: 0x8, addend: 0x0, symName: _glad_glTexCoordP2ui, symObjAddr: 0x18288, symBinAddr: 0x1000187E0, symSize: 0x0 }
  - { offsetInCU: 0x3224, offset: 0x1E9BA, size: 0x8, addend: 0x0, symName: _glad_glTexCoordP2uiv, symObjAddr: 0x18290, symBinAddr: 0x1000187E8, symSize: 0x0 }
  - { offsetInCU: 0x3247, offset: 0x1E9DD, size: 0x8, addend: 0x0, symName: _glad_glTexCoordP3ui, symObjAddr: 0x18298, symBinAddr: 0x1000187F0, symSize: 0x0 }
  - { offsetInCU: 0x326A, offset: 0x1EA00, size: 0x8, addend: 0x0, symName: _glad_glTexCoordP3uiv, symObjAddr: 0x182A0, symBinAddr: 0x1000187F8, symSize: 0x0 }
  - { offsetInCU: 0x328D, offset: 0x1EA23, size: 0x8, addend: 0x0, symName: _glad_glTexCoordP4ui, symObjAddr: 0x182A8, symBinAddr: 0x100018800, symSize: 0x0 }
  - { offsetInCU: 0x32B0, offset: 0x1EA46, size: 0x8, addend: 0x0, symName: _glad_glTexCoordP4uiv, symObjAddr: 0x182B0, symBinAddr: 0x100018808, symSize: 0x0 }
  - { offsetInCU: 0x32D3, offset: 0x1EA69, size: 0x8, addend: 0x0, symName: _glad_glTexImage1D, symObjAddr: 0x182B8, symBinAddr: 0x100018810, symSize: 0x0 }
  - { offsetInCU: 0x3325, offset: 0x1EABB, size: 0x8, addend: 0x0, symName: _glad_glTexImage2D, symObjAddr: 0x182C0, symBinAddr: 0x100018818, symSize: 0x0 }
  - { offsetInCU: 0x337C, offset: 0x1EB12, size: 0x8, addend: 0x0, symName: _glad_glTexImage2DMultisample, symObjAddr: 0x182C8, symBinAddr: 0x100018820, symSize: 0x0 }
  - { offsetInCU: 0x33C4, offset: 0x1EB5A, size: 0x8, addend: 0x0, symName: _glad_glTexImage3D, symObjAddr: 0x182D0, symBinAddr: 0x100018828, symSize: 0x0 }
  - { offsetInCU: 0x3420, offset: 0x1EBB6, size: 0x8, addend: 0x0, symName: _glad_glTexImage3DMultisample, symObjAddr: 0x182D8, symBinAddr: 0x100018830, symSize: 0x0 }
  - { offsetInCU: 0x346D, offset: 0x1EC03, size: 0x8, addend: 0x0, symName: _glad_glTexParameterIiv, symObjAddr: 0x182E0, symBinAddr: 0x100018838, symSize: 0x0 }
  - { offsetInCU: 0x34A6, offset: 0x1EC3C, size: 0x8, addend: 0x0, symName: _glad_glTexParameterIuiv, symObjAddr: 0x182E8, symBinAddr: 0x100018840, symSize: 0x0 }
  - { offsetInCU: 0x34C9, offset: 0x1EC5F, size: 0x8, addend: 0x0, symName: _glad_glTexParameterf, symObjAddr: 0x182F0, symBinAddr: 0x100018848, symSize: 0x0 }
  - { offsetInCU: 0x3502, offset: 0x1EC98, size: 0x8, addend: 0x0, symName: _glad_glTexParameterfv, symObjAddr: 0x182F8, symBinAddr: 0x100018850, symSize: 0x0 }
  - { offsetInCU: 0x353B, offset: 0x1ECD1, size: 0x8, addend: 0x0, symName: _glad_glTexParameteri, symObjAddr: 0x18300, symBinAddr: 0x100018858, symSize: 0x0 }
  - { offsetInCU: 0x3574, offset: 0x1ED0A, size: 0x8, addend: 0x0, symName: _glad_glTexParameteriv, symObjAddr: 0x18308, symBinAddr: 0x100018860, symSize: 0x0 }
  - { offsetInCU: 0x3597, offset: 0x1ED2D, size: 0x8, addend: 0x0, symName: _glad_glTexSubImage1D, symObjAddr: 0x18310, symBinAddr: 0x100018868, symSize: 0x0 }
  - { offsetInCU: 0x35E4, offset: 0x1ED7A, size: 0x8, addend: 0x0, symName: _glad_glTexSubImage2D, symObjAddr: 0x18318, symBinAddr: 0x100018870, symSize: 0x0 }
  - { offsetInCU: 0x363B, offset: 0x1EDD1, size: 0x8, addend: 0x0, symName: _glad_glTexSubImage3D, symObjAddr: 0x18320, symBinAddr: 0x100018878, symSize: 0x0 }
  - { offsetInCU: 0x369C, offset: 0x1EE32, size: 0x8, addend: 0x0, symName: _glad_glTransformFeedbackVaryings, symObjAddr: 0x18328, symBinAddr: 0x100018880, symSize: 0x0 }
  - { offsetInCU: 0x36DA, offset: 0x1EE70, size: 0x8, addend: 0x0, symName: _glad_glUniform1f, symObjAddr: 0x18330, symBinAddr: 0x100018888, symSize: 0x0 }
  - { offsetInCU: 0x370E, offset: 0x1EEA4, size: 0x8, addend: 0x0, symName: _glad_glUniform1fv, symObjAddr: 0x18338, symBinAddr: 0x100018890, symSize: 0x0 }
  - { offsetInCU: 0x3747, offset: 0x1EEDD, size: 0x8, addend: 0x0, symName: _glad_glUniform1i, symObjAddr: 0x18340, symBinAddr: 0x100018898, symSize: 0x0 }
  - { offsetInCU: 0x377B, offset: 0x1EF11, size: 0x8, addend: 0x0, symName: _glad_glUniform1iv, symObjAddr: 0x18348, symBinAddr: 0x1000188A0, symSize: 0x0 }
  - { offsetInCU: 0x37B4, offset: 0x1EF4A, size: 0x8, addend: 0x0, symName: _glad_glUniform1ui, symObjAddr: 0x18350, symBinAddr: 0x1000188A8, symSize: 0x0 }
  - { offsetInCU: 0x37E8, offset: 0x1EF7E, size: 0x8, addend: 0x0, symName: _glad_glUniform1uiv, symObjAddr: 0x18358, symBinAddr: 0x1000188B0, symSize: 0x0 }
  - { offsetInCU: 0x3821, offset: 0x1EFB7, size: 0x8, addend: 0x0, symName: _glad_glUniform2f, symObjAddr: 0x18360, symBinAddr: 0x1000188B8, symSize: 0x0 }
  - { offsetInCU: 0x385A, offset: 0x1EFF0, size: 0x8, addend: 0x0, symName: _glad_glUniform2fv, symObjAddr: 0x18368, symBinAddr: 0x1000188C0, symSize: 0x0 }
  - { offsetInCU: 0x387D, offset: 0x1F013, size: 0x8, addend: 0x0, symName: _glad_glUniform2i, symObjAddr: 0x18370, symBinAddr: 0x1000188C8, symSize: 0x0 }
  - { offsetInCU: 0x38B6, offset: 0x1F04C, size: 0x8, addend: 0x0, symName: _glad_glUniform2iv, symObjAddr: 0x18378, symBinAddr: 0x1000188D0, symSize: 0x0 }
  - { offsetInCU: 0x38D9, offset: 0x1F06F, size: 0x8, addend: 0x0, symName: _glad_glUniform2ui, symObjAddr: 0x18380, symBinAddr: 0x1000188D8, symSize: 0x0 }
  - { offsetInCU: 0x3912, offset: 0x1F0A8, size: 0x8, addend: 0x0, symName: _glad_glUniform2uiv, symObjAddr: 0x18388, symBinAddr: 0x1000188E0, symSize: 0x0 }
  - { offsetInCU: 0x3935, offset: 0x1F0CB, size: 0x8, addend: 0x0, symName: _glad_glUniform3f, symObjAddr: 0x18390, symBinAddr: 0x1000188E8, symSize: 0x0 }
  - { offsetInCU: 0x3973, offset: 0x1F109, size: 0x8, addend: 0x0, symName: _glad_glUniform3fv, symObjAddr: 0x18398, symBinAddr: 0x1000188F0, symSize: 0x0 }
  - { offsetInCU: 0x3996, offset: 0x1F12C, size: 0x8, addend: 0x0, symName: _glad_glUniform3i, symObjAddr: 0x183A0, symBinAddr: 0x1000188F8, symSize: 0x0 }
  - { offsetInCU: 0x39D4, offset: 0x1F16A, size: 0x8, addend: 0x0, symName: _glad_glUniform3iv, symObjAddr: 0x183A8, symBinAddr: 0x100018900, symSize: 0x0 }
  - { offsetInCU: 0x39F7, offset: 0x1F18D, size: 0x8, addend: 0x0, symName: _glad_glUniform3ui, symObjAddr: 0x183B0, symBinAddr: 0x100018908, symSize: 0x0 }
  - { offsetInCU: 0x3A35, offset: 0x1F1CB, size: 0x8, addend: 0x0, symName: _glad_glUniform3uiv, symObjAddr: 0x183B8, symBinAddr: 0x100018910, symSize: 0x0 }
  - { offsetInCU: 0x3A58, offset: 0x1F1EE, size: 0x8, addend: 0x0, symName: _glad_glUniform4f, symObjAddr: 0x183C0, symBinAddr: 0x100018918, symSize: 0x0 }
  - { offsetInCU: 0x3A9B, offset: 0x1F231, size: 0x8, addend: 0x0, symName: _glad_glUniform4fv, symObjAddr: 0x183C8, symBinAddr: 0x100018920, symSize: 0x0 }
  - { offsetInCU: 0x3ABE, offset: 0x1F254, size: 0x8, addend: 0x0, symName: _glad_glUniform4i, symObjAddr: 0x183D0, symBinAddr: 0x100018928, symSize: 0x0 }
  - { offsetInCU: 0x3B01, offset: 0x1F297, size: 0x8, addend: 0x0, symName: _glad_glUniform4iv, symObjAddr: 0x183D8, symBinAddr: 0x100018930, symSize: 0x0 }
  - { offsetInCU: 0x3B24, offset: 0x1F2BA, size: 0x8, addend: 0x0, symName: _glad_glUniform4ui, symObjAddr: 0x183E0, symBinAddr: 0x100018938, symSize: 0x0 }
  - { offsetInCU: 0x3B67, offset: 0x1F2FD, size: 0x8, addend: 0x0, symName: _glad_glUniform4uiv, symObjAddr: 0x183E8, symBinAddr: 0x100018940, symSize: 0x0 }
  - { offsetInCU: 0x3B8A, offset: 0x1F320, size: 0x8, addend: 0x0, symName: _glad_glUniformBlockBinding, symObjAddr: 0x183F0, symBinAddr: 0x100018948, symSize: 0x0 }
  - { offsetInCU: 0x3BC3, offset: 0x1F359, size: 0x8, addend: 0x0, symName: _glad_glUniformMatrix2fv, symObjAddr: 0x183F8, symBinAddr: 0x100018950, symSize: 0x0 }
  - { offsetInCU: 0x3C01, offset: 0x1F397, size: 0x8, addend: 0x0, symName: _glad_glUniformMatrix2x3fv, symObjAddr: 0x18400, symBinAddr: 0x100018958, symSize: 0x0 }
  - { offsetInCU: 0x3C24, offset: 0x1F3BA, size: 0x8, addend: 0x0, symName: _glad_glUniformMatrix2x4fv, symObjAddr: 0x18408, symBinAddr: 0x100018960, symSize: 0x0 }
  - { offsetInCU: 0x3C47, offset: 0x1F3DD, size: 0x8, addend: 0x0, symName: _glad_glUniformMatrix3fv, symObjAddr: 0x18410, symBinAddr: 0x100018968, symSize: 0x0 }
  - { offsetInCU: 0x3C6A, offset: 0x1F400, size: 0x8, addend: 0x0, symName: _glad_glUniformMatrix3x2fv, symObjAddr: 0x18418, symBinAddr: 0x100018970, symSize: 0x0 }
  - { offsetInCU: 0x3C8D, offset: 0x1F423, size: 0x8, addend: 0x0, symName: _glad_glUniformMatrix3x4fv, symObjAddr: 0x18420, symBinAddr: 0x100018978, symSize: 0x0 }
  - { offsetInCU: 0x3CB0, offset: 0x1F446, size: 0x8, addend: 0x0, symName: _glad_glUniformMatrix4fv, symObjAddr: 0x18428, symBinAddr: 0x100018980, symSize: 0x0 }
  - { offsetInCU: 0x3CD3, offset: 0x1F469, size: 0x8, addend: 0x0, symName: _glad_glUniformMatrix4x2fv, symObjAddr: 0x18430, symBinAddr: 0x100018988, symSize: 0x0 }
  - { offsetInCU: 0x3CF6, offset: 0x1F48C, size: 0x8, addend: 0x0, symName: _glad_glUniformMatrix4x3fv, symObjAddr: 0x18438, symBinAddr: 0x100018990, symSize: 0x0 }
  - { offsetInCU: 0x3D19, offset: 0x1F4AF, size: 0x8, addend: 0x0, symName: _glad_glUnmapBuffer, symObjAddr: 0x18440, symBinAddr: 0x100018998, symSize: 0x0 }
  - { offsetInCU: 0x3D3C, offset: 0x1F4D2, size: 0x8, addend: 0x0, symName: _glad_glUseProgram, symObjAddr: 0x18448, symBinAddr: 0x1000189A0, symSize: 0x0 }
  - { offsetInCU: 0x3D5F, offset: 0x1F4F5, size: 0x8, addend: 0x0, symName: _glad_glValidateProgram, symObjAddr: 0x18450, symBinAddr: 0x1000189A8, symSize: 0x0 }
  - { offsetInCU: 0x3D82, offset: 0x1F518, size: 0x8, addend: 0x0, symName: _glad_glVertexAttrib1d, symObjAddr: 0x18458, symBinAddr: 0x1000189B0, symSize: 0x0 }
  - { offsetInCU: 0x3DB6, offset: 0x1F54C, size: 0x8, addend: 0x0, symName: _glad_glVertexAttrib1dv, symObjAddr: 0x18460, symBinAddr: 0x1000189B8, symSize: 0x0 }
  - { offsetInCU: 0x3DF4, offset: 0x1F58A, size: 0x8, addend: 0x0, symName: _glad_glVertexAttrib1f, symObjAddr: 0x18468, symBinAddr: 0x1000189C0, symSize: 0x0 }
  - { offsetInCU: 0x3E28, offset: 0x1F5BE, size: 0x8, addend: 0x0, symName: _glad_glVertexAttrib1fv, symObjAddr: 0x18470, symBinAddr: 0x1000189C8, symSize: 0x0 }
  - { offsetInCU: 0x3E5C, offset: 0x1F5F2, size: 0x8, addend: 0x0, symName: _glad_glVertexAttrib1s, symObjAddr: 0x18478, symBinAddr: 0x1000189D0, symSize: 0x0 }
  - { offsetInCU: 0x3EAD, offset: 0x1F643, size: 0x8, addend: 0x0, symName: _glad_glVertexAttrib1sv, symObjAddr: 0x18480, symBinAddr: 0x1000189D8, symSize: 0x0 }
  - { offsetInCU: 0x3EEB, offset: 0x1F681, size: 0x8, addend: 0x0, symName: _glad_glVertexAttrib2d, symObjAddr: 0x18488, symBinAddr: 0x1000189E0, symSize: 0x0 }
  - { offsetInCU: 0x3F24, offset: 0x1F6BA, size: 0x8, addend: 0x0, symName: _glad_glVertexAttrib2dv, symObjAddr: 0x18490, symBinAddr: 0x1000189E8, symSize: 0x0 }
  - { offsetInCU: 0x3F47, offset: 0x1F6DD, size: 0x8, addend: 0x0, symName: _glad_glVertexAttrib2f, symObjAddr: 0x18498, symBinAddr: 0x1000189F0, symSize: 0x0 }
  - { offsetInCU: 0x3F80, offset: 0x1F716, size: 0x8, addend: 0x0, symName: _glad_glVertexAttrib2fv, symObjAddr: 0x184A0, symBinAddr: 0x1000189F8, symSize: 0x0 }
  - { offsetInCU: 0x3FA3, offset: 0x1F739, size: 0x8, addend: 0x0, symName: _glad_glVertexAttrib2s, symObjAddr: 0x184A8, symBinAddr: 0x100018A00, symSize: 0x0 }
  - { offsetInCU: 0x3FDC, offset: 0x1F772, size: 0x8, addend: 0x0, symName: _glad_glVertexAttrib2sv, symObjAddr: 0x184B0, symBinAddr: 0x100018A08, symSize: 0x0 }
  - { offsetInCU: 0x3FFF, offset: 0x1F795, size: 0x8, addend: 0x0, symName: _glad_glVertexAttrib3d, symObjAddr: 0x184B8, symBinAddr: 0x100018A10, symSize: 0x0 }
  - { offsetInCU: 0x403D, offset: 0x1F7D3, size: 0x8, addend: 0x0, symName: _glad_glVertexAttrib3dv, symObjAddr: 0x184C0, symBinAddr: 0x100018A18, symSize: 0x0 }
  - { offsetInCU: 0x4060, offset: 0x1F7F6, size: 0x8, addend: 0x0, symName: _glad_glVertexAttrib3f, symObjAddr: 0x184C8, symBinAddr: 0x100018A20, symSize: 0x0 }
  - { offsetInCU: 0x409E, offset: 0x1F834, size: 0x8, addend: 0x0, symName: _glad_glVertexAttrib3fv, symObjAddr: 0x184D0, symBinAddr: 0x100018A28, symSize: 0x0 }
  - { offsetInCU: 0x40C1, offset: 0x1F857, size: 0x8, addend: 0x0, symName: _glad_glVertexAttrib3s, symObjAddr: 0x184D8, symBinAddr: 0x100018A30, symSize: 0x0 }
  - { offsetInCU: 0x40FF, offset: 0x1F895, size: 0x8, addend: 0x0, symName: _glad_glVertexAttrib3sv, symObjAddr: 0x184E0, symBinAddr: 0x100018A38, symSize: 0x0 }
  - { offsetInCU: 0x4122, offset: 0x1F8B8, size: 0x8, addend: 0x0, symName: _glad_glVertexAttrib4Nbv, symObjAddr: 0x184E8, symBinAddr: 0x100018A40, symSize: 0x0 }
  - { offsetInCU: 0x417D, offset: 0x1F913, size: 0x8, addend: 0x0, symName: _glad_glVertexAttrib4Niv, symObjAddr: 0x184F0, symBinAddr: 0x100018A48, symSize: 0x0 }
  - { offsetInCU: 0x41B1, offset: 0x1F947, size: 0x8, addend: 0x0, symName: _glad_glVertexAttrib4Nsv, symObjAddr: 0x184F8, symBinAddr: 0x100018A50, symSize: 0x0 }
  - { offsetInCU: 0x41D4, offset: 0x1F96A, size: 0x8, addend: 0x0, symName: _glad_glVertexAttrib4Nub, symObjAddr: 0x18500, symBinAddr: 0x100018A58, symSize: 0x0 }
  - { offsetInCU: 0x4217, offset: 0x1F9AD, size: 0x8, addend: 0x0, symName: _glad_glVertexAttrib4Nubv, symObjAddr: 0x18508, symBinAddr: 0x100018A60, symSize: 0x0 }
  - { offsetInCU: 0x424B, offset: 0x1F9E1, size: 0x8, addend: 0x0, symName: _glad_glVertexAttrib4Nuiv, symObjAddr: 0x18510, symBinAddr: 0x100018A68, symSize: 0x0 }
  - { offsetInCU: 0x427F, offset: 0x1FA15, size: 0x8, addend: 0x0, symName: _glad_glVertexAttrib4Nusv, symObjAddr: 0x18518, symBinAddr: 0x100018A70, symSize: 0x0 }
  - { offsetInCU: 0x42DA, offset: 0x1FA70, size: 0x8, addend: 0x0, symName: _glad_glVertexAttrib4bv, symObjAddr: 0x18520, symBinAddr: 0x100018A78, symSize: 0x0 }
  - { offsetInCU: 0x42FD, offset: 0x1FA93, size: 0x8, addend: 0x0, symName: _glad_glVertexAttrib4d, symObjAddr: 0x18528, symBinAddr: 0x100018A80, symSize: 0x0 }
  - { offsetInCU: 0x4340, offset: 0x1FAD6, size: 0x8, addend: 0x0, symName: _glad_glVertexAttrib4dv, symObjAddr: 0x18530, symBinAddr: 0x100018A88, symSize: 0x0 }
  - { offsetInCU: 0x4363, offset: 0x1FAF9, size: 0x8, addend: 0x0, symName: _glad_glVertexAttrib4f, symObjAddr: 0x18538, symBinAddr: 0x100018A90, symSize: 0x0 }
  - { offsetInCU: 0x43A6, offset: 0x1FB3C, size: 0x8, addend: 0x0, symName: _glad_glVertexAttrib4fv, symObjAddr: 0x18540, symBinAddr: 0x100018A98, symSize: 0x0 }
  - { offsetInCU: 0x43C9, offset: 0x1FB5F, size: 0x8, addend: 0x0, symName: _glad_glVertexAttrib4iv, symObjAddr: 0x18548, symBinAddr: 0x100018AA0, symSize: 0x0 }
  - { offsetInCU: 0x43EC, offset: 0x1FB82, size: 0x8, addend: 0x0, symName: _glad_glVertexAttrib4s, symObjAddr: 0x18550, symBinAddr: 0x100018AA8, symSize: 0x0 }
  - { offsetInCU: 0x442F, offset: 0x1FBC5, size: 0x8, addend: 0x0, symName: _glad_glVertexAttrib4sv, symObjAddr: 0x18558, symBinAddr: 0x100018AB0, symSize: 0x0 }
  - { offsetInCU: 0x4452, offset: 0x1FBE8, size: 0x8, addend: 0x0, symName: _glad_glVertexAttrib4ubv, symObjAddr: 0x18560, symBinAddr: 0x100018AB8, symSize: 0x0 }
  - { offsetInCU: 0x4475, offset: 0x1FC0B, size: 0x8, addend: 0x0, symName: _glad_glVertexAttrib4uiv, symObjAddr: 0x18568, symBinAddr: 0x100018AC0, symSize: 0x0 }
  - { offsetInCU: 0x4498, offset: 0x1FC2E, size: 0x8, addend: 0x0, symName: _glad_glVertexAttrib4usv, symObjAddr: 0x18570, symBinAddr: 0x100018AC8, symSize: 0x0 }
  - { offsetInCU: 0x44BB, offset: 0x1FC51, size: 0x8, addend: 0x0, symName: _glad_glVertexAttribDivisor, symObjAddr: 0x18578, symBinAddr: 0x100018AD0, symSize: 0x0 }
  - { offsetInCU: 0x44DE, offset: 0x1FC74, size: 0x8, addend: 0x0, symName: _glad_glVertexAttribI1i, symObjAddr: 0x18580, symBinAddr: 0x100018AD8, symSize: 0x0 }
  - { offsetInCU: 0x4512, offset: 0x1FCA8, size: 0x8, addend: 0x0, symName: _glad_glVertexAttribI1iv, symObjAddr: 0x18588, symBinAddr: 0x100018AE0, symSize: 0x0 }
  - { offsetInCU: 0x4535, offset: 0x1FCCB, size: 0x8, addend: 0x0, symName: _glad_glVertexAttribI1ui, symObjAddr: 0x18590, symBinAddr: 0x100018AE8, symSize: 0x0 }
  - { offsetInCU: 0x4558, offset: 0x1FCEE, size: 0x8, addend: 0x0, symName: _glad_glVertexAttribI1uiv, symObjAddr: 0x18598, symBinAddr: 0x100018AF0, symSize: 0x0 }
  - { offsetInCU: 0x457B, offset: 0x1FD11, size: 0x8, addend: 0x0, symName: _glad_glVertexAttribI2i, symObjAddr: 0x185A0, symBinAddr: 0x100018AF8, symSize: 0x0 }
  - { offsetInCU: 0x45B4, offset: 0x1FD4A, size: 0x8, addend: 0x0, symName: _glad_glVertexAttribI2iv, symObjAddr: 0x185A8, symBinAddr: 0x100018B00, symSize: 0x0 }
  - { offsetInCU: 0x45D7, offset: 0x1FD6D, size: 0x8, addend: 0x0, symName: _glad_glVertexAttribI2ui, symObjAddr: 0x185B0, symBinAddr: 0x100018B08, symSize: 0x0 }
  - { offsetInCU: 0x45FA, offset: 0x1FD90, size: 0x8, addend: 0x0, symName: _glad_glVertexAttribI2uiv, symObjAddr: 0x185B8, symBinAddr: 0x100018B10, symSize: 0x0 }
  - { offsetInCU: 0x461D, offset: 0x1FDB3, size: 0x8, addend: 0x0, symName: _glad_glVertexAttribI3i, symObjAddr: 0x185C0, symBinAddr: 0x100018B18, symSize: 0x0 }
  - { offsetInCU: 0x465B, offset: 0x1FDF1, size: 0x8, addend: 0x0, symName: _glad_glVertexAttribI3iv, symObjAddr: 0x185C8, symBinAddr: 0x100018B20, symSize: 0x0 }
  - { offsetInCU: 0x467E, offset: 0x1FE14, size: 0x8, addend: 0x0, symName: _glad_glVertexAttribI3ui, symObjAddr: 0x185D0, symBinAddr: 0x100018B28, symSize: 0x0 }
  - { offsetInCU: 0x46BC, offset: 0x1FE52, size: 0x8, addend: 0x0, symName: _glad_glVertexAttribI3uiv, symObjAddr: 0x185D8, symBinAddr: 0x100018B30, symSize: 0x0 }
  - { offsetInCU: 0x46DF, offset: 0x1FE75, size: 0x8, addend: 0x0, symName: _glad_glVertexAttribI4bv, symObjAddr: 0x185E0, symBinAddr: 0x100018B38, symSize: 0x0 }
  - { offsetInCU: 0x4702, offset: 0x1FE98, size: 0x8, addend: 0x0, symName: _glad_glVertexAttribI4i, symObjAddr: 0x185E8, symBinAddr: 0x100018B40, symSize: 0x0 }
  - { offsetInCU: 0x4745, offset: 0x1FEDB, size: 0x8, addend: 0x0, symName: _glad_glVertexAttribI4iv, symObjAddr: 0x185F0, symBinAddr: 0x100018B48, symSize: 0x0 }
  - { offsetInCU: 0x4768, offset: 0x1FEFE, size: 0x8, addend: 0x0, symName: _glad_glVertexAttribI4sv, symObjAddr: 0x185F8, symBinAddr: 0x100018B50, symSize: 0x0 }
  - { offsetInCU: 0x478B, offset: 0x1FF21, size: 0x8, addend: 0x0, symName: _glad_glVertexAttribI4ubv, symObjAddr: 0x18600, symBinAddr: 0x100018B58, symSize: 0x0 }
  - { offsetInCU: 0x47AE, offset: 0x1FF44, size: 0x8, addend: 0x0, symName: _glad_glVertexAttribI4ui, symObjAddr: 0x18608, symBinAddr: 0x100018B60, symSize: 0x0 }
  - { offsetInCU: 0x47F1, offset: 0x1FF87, size: 0x8, addend: 0x0, symName: _glad_glVertexAttribI4uiv, symObjAddr: 0x18610, symBinAddr: 0x100018B68, symSize: 0x0 }
  - { offsetInCU: 0x4814, offset: 0x1FFAA, size: 0x8, addend: 0x0, symName: _glad_glVertexAttribI4usv, symObjAddr: 0x18618, symBinAddr: 0x100018B70, symSize: 0x0 }
  - { offsetInCU: 0x4837, offset: 0x1FFCD, size: 0x8, addend: 0x0, symName: _glad_glVertexAttribIPointer, symObjAddr: 0x18620, symBinAddr: 0x100018B78, symSize: 0x0 }
  - { offsetInCU: 0x487A, offset: 0x20010, size: 0x8, addend: 0x0, symName: _glad_glVertexAttribP1ui, symObjAddr: 0x18628, symBinAddr: 0x100018B80, symSize: 0x0 }
  - { offsetInCU: 0x48B8, offset: 0x2004E, size: 0x8, addend: 0x0, symName: _glad_glVertexAttribP1uiv, symObjAddr: 0x18630, symBinAddr: 0x100018B88, symSize: 0x0 }
  - { offsetInCU: 0x48F6, offset: 0x2008C, size: 0x8, addend: 0x0, symName: _glad_glVertexAttribP2ui, symObjAddr: 0x18638, symBinAddr: 0x100018B90, symSize: 0x0 }
  - { offsetInCU: 0x4919, offset: 0x200AF, size: 0x8, addend: 0x0, symName: _glad_glVertexAttribP2uiv, symObjAddr: 0x18640, symBinAddr: 0x100018B98, symSize: 0x0 }
  - { offsetInCU: 0x493C, offset: 0x200D2, size: 0x8, addend: 0x0, symName: _glad_glVertexAttribP3ui, symObjAddr: 0x18648, symBinAddr: 0x100018BA0, symSize: 0x0 }
  - { offsetInCU: 0x495F, offset: 0x200F5, size: 0x8, addend: 0x0, symName: _glad_glVertexAttribP3uiv, symObjAddr: 0x18650, symBinAddr: 0x100018BA8, symSize: 0x0 }
  - { offsetInCU: 0x4982, offset: 0x20118, size: 0x8, addend: 0x0, symName: _glad_glVertexAttribP4ui, symObjAddr: 0x18658, symBinAddr: 0x100018BB0, symSize: 0x0 }
  - { offsetInCU: 0x49A5, offset: 0x2013B, size: 0x8, addend: 0x0, symName: _glad_glVertexAttribP4uiv, symObjAddr: 0x18660, symBinAddr: 0x100018BB8, symSize: 0x0 }
  - { offsetInCU: 0x49C8, offset: 0x2015E, size: 0x8, addend: 0x0, symName: _glad_glVertexAttribPointer, symObjAddr: 0x18668, symBinAddr: 0x100018BC0, symSize: 0x0 }
  - { offsetInCU: 0x4A10, offset: 0x201A6, size: 0x8, addend: 0x0, symName: _glad_glVertexP2ui, symObjAddr: 0x18670, symBinAddr: 0x100018BC8, symSize: 0x0 }
  - { offsetInCU: 0x4A33, offset: 0x201C9, size: 0x8, addend: 0x0, symName: _glad_glVertexP2uiv, symObjAddr: 0x18678, symBinAddr: 0x100018BD0, symSize: 0x0 }
  - { offsetInCU: 0x4A56, offset: 0x201EC, size: 0x8, addend: 0x0, symName: _glad_glVertexP3ui, symObjAddr: 0x18680, symBinAddr: 0x100018BD8, symSize: 0x0 }
  - { offsetInCU: 0x4A79, offset: 0x2020F, size: 0x8, addend: 0x0, symName: _glad_glVertexP3uiv, symObjAddr: 0x18688, symBinAddr: 0x100018BE0, symSize: 0x0 }
  - { offsetInCU: 0x4A9C, offset: 0x20232, size: 0x8, addend: 0x0, symName: _glad_glVertexP4ui, symObjAddr: 0x18690, symBinAddr: 0x100018BE8, symSize: 0x0 }
  - { offsetInCU: 0x4ABF, offset: 0x20255, size: 0x8, addend: 0x0, symName: _glad_glVertexP4uiv, symObjAddr: 0x18698, symBinAddr: 0x100018BF0, symSize: 0x0 }
  - { offsetInCU: 0x4AE2, offset: 0x20278, size: 0x8, addend: 0x0, symName: _glad_glViewport, symObjAddr: 0x186A0, symBinAddr: 0x100018BF8, symSize: 0x0 }
  - { offsetInCU: 0x4B05, offset: 0x2029B, size: 0x8, addend: 0x0, symName: _glad_glWaitSync, symObjAddr: 0x186A8, symBinAddr: 0x100018C00, symSize: 0x0 }
  - { offsetInCU: 0x4B3D, offset: 0x202D3, size: 0x8, addend: 0x0, symName: __ZL7open_glv, symObjAddr: 0x40, symBinAddr: 0x10000F260, symSize: 0x90 }
  - { offsetInCU: 0x4B67, offset: 0x202FD, size: 0x8, addend: 0x0, symName: __ZZL7open_glvE5NAMES, symObjAddr: 0x3FD0, symBinAddr: 0x100018000, symSize: 0x0 }
  - { offsetInCU: 0x4B9D, offset: 0x20333, size: 0x8, addend: 0x0, symName: __ZL5libGL, symObjAddr: 0x186B0, symBinAddr: 0x100018C08, symSize: 0x0 }
  - { offsetInCU: 0x4BB7, offset: 0x2034D, size: 0x8, addend: 0x0, symName: __ZL16max_loaded_major, symObjAddr: 0x186B8, symBinAddr: 0x100018C10, symSize: 0x0 }
  - { offsetInCU: 0x4BD1, offset: 0x20367, size: 0x8, addend: 0x0, symName: __ZL16max_loaded_minor, symObjAddr: 0x186BC, symBinAddr: 0x100018C14, symSize: 0x0 }
  - { offsetInCU: 0x4BEB, offset: 0x20381, size: 0x8, addend: 0x0, symName: __ZL4exts, symObjAddr: 0x186C0, symBinAddr: 0x100018C18, symSize: 0x0 }
  - { offsetInCU: 0x4C05, offset: 0x2039B, size: 0x8, addend: 0x0, symName: __ZL10num_exts_i, symObjAddr: 0x186C8, symBinAddr: 0x100018C20, symSize: 0x0 }
  - { offsetInCU: 0x4C1F, offset: 0x203B5, size: 0x8, addend: 0x0, symName: __ZL6exts_i, symObjAddr: 0x186D0, symBinAddr: 0x100018C28, symSize: 0x0 }
  - { offsetInCU: 0x4C54, offset: 0x203EA, size: 0x8, addend: 0x0, symName: _gladLoadGL, symObjAddr: 0x0, symBinAddr: 0x10000F220, symSize: 0x40 }
  - { offsetInCU: 0x4C7D, offset: 0x20413, size: 0x8, addend: 0x0, symName: _gladLoadGLLoader, symObjAddr: 0xD0, symBinAddr: 0x10000F2F0, symSize: 0x130 }
  - { offsetInCU: 0x4CA8, offset: 0x2043E, size: 0x8, addend: 0x0, symName: __ZL8get_procPKc, symObjAddr: 0x200, symBinAddr: 0x10000F420, symSize: 0x60 }
  - { offsetInCU: 0x4CE3, offset: 0x20479, size: 0x8, addend: 0x0, symName: __ZL8close_glv, symObjAddr: 0x260, symBinAddr: 0x10000F480, symSize: 0x30 }
  - { offsetInCU: 0x4CFD, offset: 0x20493, size: 0x8, addend: 0x0, symName: __ZL11find_coreGLv, symObjAddr: 0x290, symBinAddr: 0x10000F4B0, symSize: 0x3C0 }
  - { offsetInCU: 0x4D83, offset: 0x20519, size: 0x8, addend: 0x0, symName: __ZL19load_GL_VERSION_1_0PFPvPKcE, symObjAddr: 0x650, symBinAddr: 0x10000F870, symSize: 0x360 }
  - { offsetInCU: 0x4DAE, offset: 0x20544, size: 0x8, addend: 0x0, symName: __ZL19load_GL_VERSION_1_1PFPvPKcE, symObjAddr: 0x9B0, symBinAddr: 0x10000FBD0, symSize: 0x110 }
  - { offsetInCU: 0x4DD9, offset: 0x2056F, size: 0x8, addend: 0x0, symName: __ZL19load_GL_VERSION_1_2PFPvPKcE, symObjAddr: 0xAC0, symBinAddr: 0x10000FCE0, symSize: 0x70 }
  - { offsetInCU: 0x4E04, offset: 0x2059A, size: 0x8, addend: 0x0, symName: __ZL19load_GL_VERSION_1_3PFPvPKcE, symObjAddr: 0xB30, symBinAddr: 0x10000FD50, symSize: 0xC0 }
  - { offsetInCU: 0x4E2F, offset: 0x205C5, size: 0x8, addend: 0x0, symName: __ZL19load_GL_VERSION_1_4PFPvPKcE, symObjAddr: 0xBF0, symBinAddr: 0x10000FE10, symSize: 0xC0 }
  - { offsetInCU: 0x4E5A, offset: 0x205F0, size: 0x8, addend: 0x0, symName: __ZL19load_GL_VERSION_1_5PFPvPKcE, symObjAddr: 0xCB0, symBinAddr: 0x10000FED0, symSize: 0x170 }
  - { offsetInCU: 0x4E85, offset: 0x2061B, size: 0x8, addend: 0x0, symName: __ZL19load_GL_VERSION_2_0PFPvPKcE, symObjAddr: 0xE20, symBinAddr: 0x100010040, symSize: 0x660 }
  - { offsetInCU: 0x4EB0, offset: 0x20646, size: 0x8, addend: 0x0, symName: __ZL19load_GL_VERSION_2_1PFPvPKcE, symObjAddr: 0x1480, symBinAddr: 0x1000106A0, symSize: 0x90 }
  - { offsetInCU: 0x4EDB, offset: 0x20671, size: 0x8, addend: 0x0, symName: __ZL19load_GL_VERSION_3_0PFPvPKcE, symObjAddr: 0x1510, symBinAddr: 0x100010730, symSize: 0x5C0 }
  - { offsetInCU: 0x4F06, offset: 0x2069C, size: 0x8, addend: 0x0, symName: __ZL19load_GL_VERSION_3_1PFPvPKcE, symObjAddr: 0x1AD0, symBinAddr: 0x100010CF0, symSize: 0x130 }
  - { offsetInCU: 0x4F31, offset: 0x206C7, size: 0x8, addend: 0x0, symName: __ZL19load_GL_VERSION_3_2PFPvPKcE, symObjAddr: 0x1C00, symBinAddr: 0x100010E20, symSize: 0x170 }
  - { offsetInCU: 0x4F5C, offset: 0x206F2, size: 0x8, addend: 0x0, symName: __ZL19load_GL_VERSION_3_3PFPvPKcE, symObjAddr: 0x1D70, symBinAddr: 0x100010F90, symSize: 0x400 }
  - { offsetInCU: 0x4F87, offset: 0x2071D, size: 0x8, addend: 0x0, symName: __ZL17find_extensionsGLv, symObjAddr: 0x2170, symBinAddr: 0x100011390, symSize: 0x40 }
  - { offsetInCU: 0x4FA6, offset: 0x2073C, size: 0x8, addend: 0x0, symName: __ZL8get_extsv, symObjAddr: 0x21B0, symBinAddr: 0x1000113D0, symSize: 0x130 }
  - { offsetInCU: 0x5019, offset: 0x207AF, size: 0x8, addend: 0x0, symName: __ZL7has_extPKc, symObjAddr: 0x22E0, symBinAddr: 0x100011500, symSize: 0x190 }
  - { offsetInCU: 0x50B6, offset: 0x2084C, size: 0x8, addend: 0x0, symName: __ZL9free_extsv, symObjAddr: 0x2470, symBinAddr: 0x100011690, symSize: 0x70 }
  - { offsetInCU: 0x50ED, offset: 0x20883, size: 0x8, addend: 0x0, symName: __Z6strstrB7v160006Ua9enable_ifIXLb1EEEPKcS0_, symObjAddr: 0x24E0, symBinAddr: 0x100011700, symSize: 0x23 }
...
